
kernel.elf:     file format elf32-m68k
architecture: m68k:68000, flags 0x00000112:
EXEC_P, HAS_SYMS, D_PAGED
start address 0x00008000

Sections:
Idx Name          Size      VMA       LMA       File off  Algn
  0 .text         000038be  00008000  00008000  00002000  2**2
                  CONTENTS, ALLOC, LOAD, READONLY, CODE
  1 .rodata       0000012d  0000b8be  0000b8be  000058be  2**1
                  CONTENTS, ALLOC, LOAD, READONLY, DATA
  2 .rodata.str1.1 0000003d  0000b9eb  0000b9eb  000059eb  2**0
                  CONTENTS, ALLOC, LOAD, READONLY, DATA
  3 .data         000009a0  0000ba28  0000ba28  00005a28  2**2
                  CONTENTS, ALLOC, LOAD, DATA
  4 .bss          0000003c  0000c3c8  0000c3c8  000063c8  2**2
                  ALLOC
  5 .debug_info   000153b9  00000000  00000000  000063c8  2**0
                  CONTENTS, READONLY, DEBUGGING, OCTETS
  6 .debug_abbrev 0000502c  00000000  00000000  0001b781  2**0
                  CONTENTS, READONLY, DEBUGGING, OCTETS
  7 .debug_aranges 00000570  00000000  00000000  000207b0  2**3
                  CONTENTS, READONLY, DEBUGGING, OCTETS
  8 .debug_line   00006d34  00000000  00000000  00020d20  2**0
                  CONTENTS, READONLY, DEBUGGING, OCTETS
  9 .debug_str    0000181a  00000000  00000000  00027a54  2**0
                  CONTENTS, READONLY, DEBUGGING, OCTETS
 10 .comment      0000002a  00000000  00000000  0002926e  2**0
                  CONTENTS, READONLY
 11 .debug_frame  0000109c  00000000  00000000  00029298  2**2
                  CONTENTS, READONLY, DEBUGGING, OCTETS
 12 .debug_loclists 00003f48  00000000  00000000  0002a334  2**0
                  CONTENTS, READONLY, DEBUGGING, OCTETS
 13 .debug_rnglists 00000293  00000000  00000000  0002e27c  2**0
                  CONTENTS, READONLY, DEBUGGING, OCTETS
 14 .debug_line_str 00000065  00000000  00000000  0002e50f  2**0
                  CONTENTS, READONLY, DEBUGGING, OCTETS

Disassembly of section .text:

00008000 <_start>:
    8000:	4e56 0000      	linkw %fp,#0
    8004:	4eb9 0000 81c8 	jsr 81c8 <main>
    800a:	4e71           	nop
    800c:	4e5e           	unlk %fp
    800e:	4e75           	rts

00008010 <write>:
    8010:	4e56 fffc      	linkw %fp,#-4
    8014:	42ae fffc      	clrl %fp@(-4)
    8018:	601e           	bras 8038 <write+0x28>
    801a:	202e fffc      	movel %fp@(-4),%d0
    801e:	206e 000c      	moveal %fp@(12),%a0
    8022:	d1c0           	addal %d0,%a0
    8024:	1010           	moveb %a0@,%d0
    8026:	4880           	extw %d0
    8028:	3040           	moveaw %d0,%a0
    802a:	2f08           	movel %a0,%sp@-
    802c:	4eb9 0000 8114 	jsr 8114 <mfp_putc>
    8032:	588f           	addql #4,%sp
    8034:	52ae fffc      	addql #1,%fp@(-4)
    8038:	202e fffc      	movel %fp@(-4),%d0
    803c:	b0ae 0010      	cmpl %fp@(16),%d0
    8040:	6dd8           	blts 801a <write+0xa>
    8042:	4e71           	nop
    8044:	4e71           	nop
    8046:	4e5e           	unlk %fp
    8048:	4e75           	rts

0000804a <sbrk>:
    804a:	4e56 0000      	linkw %fp,#0
    804e:	4e71           	nop
    8050:	4e5e           	unlk %fp
    8052:	4e75           	rts

00008054 <close>:
    8054:	4e56 0000      	linkw %fp,#0
    8058:	4e71           	nop
    805a:	4e5e           	unlk %fp
    805c:	4e75           	rts

0000805e <fstat>:
    805e:	4e56 0000      	linkw %fp,#0
    8062:	4e71           	nop
    8064:	4e5e           	unlk %fp
    8066:	4e75           	rts

00008068 <isatty>:
    8068:	4e56 0000      	linkw %fp,#0
    806c:	4e71           	nop
    806e:	4e5e           	unlk %fp
    8070:	4e75           	rts

00008072 <lseek>:
    8072:	4e56 0000      	linkw %fp,#0
    8076:	4e71           	nop
    8078:	4e5e           	unlk %fp
    807a:	4e75           	rts

0000807c <read>:
    807c:	4e56 0000      	linkw %fp,#0
    8080:	4e71           	nop
    8082:	4e5e           	unlk %fp
    8084:	4e75           	rts
	...

00008088 <set_interrupts>:
    8088:	4e56 fffc      	linkw %fp,#-4
    808c:	202e 0008      	movel %fp@(8),%d0
    8090:	1000           	moveb %d0,%d0
    8092:	1d40 fffe      	moveb %d0,%fp@(-2)
    8096:	6706           	beqs 809e <set_interrupts+0x16>
    8098:	027c f8ff      	andiw #-1793,%sr
    809c:	6004           	bras 80a2 <set_interrupts+0x1a>
    809e:	007c 0700      	oriw #1792,%sr
    80a2:	4e71           	nop
    80a4:	4e5e           	unlk %fp
    80a6:	4e75           	rts

000080a8 <set_exception_handler>:
    80a8:	4e56 fffc      	linkw %fp,#-4
    80ac:	202e 0008      	movel %fp@(8),%d0
    80b0:	1000           	moveb %d0,%d0
    80b2:	1d40 fffe      	moveb %d0,%fp@(-2)
    80b6:	7000           	moveq #0,%d0
    80b8:	102e fffe      	moveb %fp@(-2),%d0
    80bc:	d080           	addl %d0,%d0
    80be:	d080           	addl %d0,%d0
    80c0:	2040           	moveal %d0,%a0
    80c2:	202e 000c      	movel %fp@(12),%d0
    80c6:	2080           	movel %d0,%a0@
    80c8:	4e71           	nop
    80ca:	4e5e           	unlk %fp
    80cc:	4e75           	rts

000080ce <mfp_init>:
    80ce:	4e56 0000      	linkw %fp,#0
    80d2:	207c 003f 0005 	moveal #4128773,%a0
    80d8:	10bc ffff      	moveb #-1,%a0@
    80dc:	207c 003f 0019 	moveal #4128793,%a0
    80e2:	10bc 0011      	moveb #17,%a0@
    80e6:	207c 003f 001f 	moveal #4128799,%a0
    80ec:	10bc 0003      	moveb #3,%a0@
    80f0:	207c 003f 0029 	moveal #4128809,%a0
    80f6:	10bc ff88      	moveb #-120,%a0@
    80fa:	207c 003f 002d 	moveal #4128813,%a0
    8100:	10bc 0001      	moveb #1,%a0@
    8104:	207c 003f 002b 	moveal #4128811,%a0
    810a:	10bc 0001      	moveb #1,%a0@
    810e:	4e71           	nop
    8110:	4e5e           	unlk %fp
    8112:	4e75           	rts

00008114 <mfp_putc>:
    8114:	4e56 fffc      	linkw %fp,#-4
    8118:	202e 0008      	movel %fp@(8),%d0
    811c:	1000           	moveb %d0,%d0
    811e:	1d40 fffe      	moveb %d0,%fp@(-2)
    8122:	4e71           	nop
    8124:	207c 003f 002d 	moveal #4128813,%a0
    812a:	1010           	moveb %a0@,%d0
    812c:	6af6           	bpls 8124 <mfp_putc+0x10>
    812e:	207c 003f 002f 	moveal #4128815,%a0
    8134:	102e fffe      	moveb %fp@(-2),%d0
    8138:	1080           	moveb %d0,%a0@
    813a:	0c2e 000a fffe 	cmpib #10,%fp@(-2)
    8140:	660a           	bnes 814c <mfp_putc+0x38>
    8142:	4878 000d      	pea d <_start-0x7ff3>
    8146:	4eba ffcc      	jsr %pc@(8114 <mfp_putc>)
    814a:	588f           	addql #4,%sp
    814c:	4e71           	nop
    814e:	4e5e           	unlk %fp
    8150:	4e75           	rts

00008152 <mfp_puts>:
    8152:	4e56 fffc      	linkw %fp,#-4
    8156:	42ae fffc      	clrl %fp@(-4)
    815a:	601a           	bras 8176 <mfp_puts+0x24>
    815c:	206e 0008      	moveal %fp@(8),%a0
    8160:	d1ee fffc      	addal %fp@(-4),%a0
    8164:	1010           	moveb %a0@,%d0
    8166:	4880           	extw %d0
    8168:	3040           	moveaw %d0,%a0
    816a:	2f08           	movel %a0,%sp@-
    816c:	4eba ffa6      	jsr %pc@(8114 <mfp_putc>)
    8170:	588f           	addql #4,%sp
    8172:	52ae fffc      	addql #1,%fp@(-4)
    8176:	206e 0008      	moveal %fp@(8),%a0
    817a:	d1ee fffc      	addal %fp@(-4),%a0
    817e:	1010           	moveb %a0@,%d0
    8180:	66da           	bnes 815c <mfp_puts+0xa>
    8182:	4e71           	nop
    8184:	4e71           	nop
    8186:	4e5e           	unlk %fp
    8188:	4e75           	rts

0000818a <mfp_getc>:
    818a:	4e56 0000      	linkw %fp,#0
    818e:	4e71           	nop
    8190:	207c 003f 002b 	moveal #4128811,%a0
    8196:	1010           	moveb %a0@,%d0
    8198:	6af6           	bpls 8190 <mfp_getc+0x6>
    819a:	207c 003f 002f 	moveal #4128815,%a0
    81a0:	1010           	moveb %a0@,%d0
    81a2:	4e5e           	unlk %fp
    81a4:	4e75           	rts

000081a6 <delay>:
    81a6:	4e56 fffc      	linkw %fp,#-4
    81aa:	42ae fffc      	clrl %fp@(-4)
    81ae:	6004           	bras 81b4 <delay+0xe>
    81b0:	52ae fffc      	addql #1,%fp@(-4)
    81b4:	202e fffc      	movel %fp@(-4),%d0
    81b8:	b0ae 0008      	cmpl %fp@(8),%d0
    81bc:	6df2           	blts 81b0 <delay+0xa>
    81be:	4e71           	nop
    81c0:	4e71           	nop
    81c2:	4e5e           	unlk %fp
    81c4:	4e75           	rts
	...

000081c8 <main>:
    81c8:	4e56 fffc      	linkw %fp,#-4
    81cc:	42ae fffc      	clrl %fp@(-4)
    81d0:	2f3c dead beef 	movel #-559038737,%sp@-
    81d6:	4879 0000 b8be 	pea b8be <__modsi3+0x2e>
    81dc:	4eb9 0000 8238 	jsr 8238 <iprintf>
    81e2:	508f           	addql #8,%sp
    81e4:	4878 03e8      	pea 3e8 <_start-0x7c18>
    81e8:	4eb9 0000 81a6 	jsr 81a6 <delay>
    81ee:	588f           	addql #4,%sp
    81f0:	207c 003f 0001 	moveal #4128769,%a0
    81f6:	202e fffc      	movel %fp@(-4),%d0
    81fa:	1080           	moveb %d0,%a0@
    81fc:	2f2e fffc      	movel %fp@(-4),%sp@-
    8200:	4879 0000 b8d5 	pea b8d5 <__modsi3+0x45>
    8206:	4eb9 0000 8238 	jsr 8238 <iprintf>
    820c:	508f           	addql #8,%sp
    820e:	52ae fffc      	addql #1,%fp@(-4)
    8212:	60d0           	bras 81e4 <main+0x1c>

00008214 <_iprintf_r>:
    8214:	4e56 0000      	linkw %fp,#0
    8218:	206e 0008      	moveal %fp@(8),%a0
    821c:	486e 0010      	pea %fp@(16)
    8220:	2f2e 000c      	movel %fp@(12),%sp@-
    8224:	2f28 0008      	movel %a0@(8),%sp@-
    8228:	2f08           	movel %a0,%sp@-
    822a:	4eb9 0000 83e0 	jsr 83e0 <_vfiprintf_r>
    8230:	4fef 0010      	lea %sp@(16),%sp
    8234:	4e5e           	unlk %fp
    8236:	4e75           	rts

00008238 <iprintf>:
    8238:	4e56 0000      	linkw %fp,#0
    823c:	2079 0000 ba28 	moveal ba28 <_impure_ptr>,%a0
    8242:	486e 000c      	pea %fp@(12)
    8246:	2f2e 0008      	movel %fp@(8),%sp@-
    824a:	2f28 0008      	movel %a0@(8),%sp@-
    824e:	2f08           	movel %a0,%sp@-
    8250:	4eb9 0000 83e0 	jsr 83e0 <_vfiprintf_r>
    8256:	4fef 0010      	lea %sp@(16),%sp
    825a:	4e5e           	unlk %fp
    825c:	4e75           	rts
	...

00008260 <__sfputc_r>:
    8260:	598f           	subql #4,%sp
    8262:	2f02           	movel %d2,%sp@-
    8264:	226f 000c      	moveal %sp@(12),%a1
    8268:	222f 0010      	movel %sp@(16),%d1
    826c:	206f 0014      	moveal %sp@(20),%a0
    8270:	2028 0008      	movel %a0@(8),%d0
    8274:	5380           	subql #1,%d0
    8276:	2140 0008      	movel %d0,%a0@(8)
    827a:	6a0c           	bpls 8288 <__sfputc_r+0x28>
    827c:	b0a8 0018      	cmpl %a0@(24),%d0
    8280:	6d22           	blts 82a4 <__sfputc_r+0x44>
    8282:	700a           	moveq #10,%d0
    8284:	b081           	cmpl %d1,%d0
    8286:	671c           	beqs 82a4 <__sfputc_r+0x44>
    8288:	2010           	movel %a0@,%d0
    828a:	2400           	movel %d0,%d2
    828c:	5282           	addql #1,%d2
    828e:	2082           	movel %d2,%a0@
    8290:	2040           	moveal %d0,%a0
    8292:	1081           	moveb %d1,%a0@
    8294:	7000           	moveq #0,%d0
    8296:	4600           	notb %d0
    8298:	c081           	andl %d1,%d0
    829a:	2f40 0004      	movel %d0,%sp@(4)
    829e:	241f           	movel %sp@+,%d2
    82a0:	588f           	addql #4,%sp
    82a2:	4e75           	rts
    82a4:	2f48 0014      	movel %a0,%sp@(20)
    82a8:	2f41 0010      	movel %d1,%sp@(16)
    82ac:	2f49 000c      	movel %a1,%sp@(12)
    82b0:	241f           	movel %sp@+,%d2
    82b2:	588f           	addql #4,%sp
    82b4:	4ef9 0000 8778 	jmp 8778 <__swbuf_r>

000082ba <__sfputs_r>:
    82ba:	48e7 3038      	moveml %d2-%d3/%a2-%a4,%sp@-
    82be:	242f 0018      	movel %sp@(24),%d2
    82c2:	266f 001c      	moveal %sp@(28),%a3
    82c6:	082b 0005 0066 	btst #5,%a3@(102)
    82cc:	6636           	bnes 8304 <__sfputs_r+0x4a>
    82ce:	4aaf 0024      	tstl %sp@(36)
    82d2:	6728           	beqs 82fc <__sfputs_r+0x42>
    82d4:	246f 0020      	moveal %sp@(32),%a2
    82d8:	262f 0024      	movel %sp@(36),%d3
    82dc:	d68a           	addl %a2,%d3
    82de:	49fa ff80      	lea %pc@(8260 <__sfputc_r>),%a4
    82e2:	2f0b           	movel %a3,%sp@-
    82e4:	101a           	moveb %a2@+,%d0
    82e6:	4880           	extw %d0
    82e8:	3040           	moveaw %d0,%a0
    82ea:	2f08           	movel %a0,%sp@-
    82ec:	2f02           	movel %d2,%sp@-
    82ee:	4e94           	jsr %a4@
    82f0:	4fef 000c      	lea %sp@(12),%sp
    82f4:	5280           	addql #1,%d0
    82f6:	674a           	beqs 8342 <__sfputs_r+0x88>
    82f8:	b68a           	cmpl %a2,%d3
    82fa:	66e6           	bnes 82e2 <__sfputs_r+0x28>
    82fc:	7000           	moveq #0,%d0
    82fe:	4cdf 1c0c      	moveml %sp@+,%d2-%d3/%a2-%a4
    8302:	4e75           	rts
    8304:	202f 0024      	movel %sp@(36),%d0
    8308:	e488           	lsrl #2,%d0
    830a:	67f0           	beqs 82fc <__sfputs_r+0x42>
    830c:	246f 0020      	moveal %sp@(32),%a2
    8310:	d080           	addl %d0,%d0
    8312:	d080           	addl %d0,%d0
    8314:	260a           	movel %a2,%d3
    8316:	d680           	addl %d0,%d3
    8318:	49f9 0000 8ffe 	lea 8ffe <_fputwc_r>,%a4
    831e:	2f0b           	movel %a3,%sp@-
    8320:	2f1a           	movel %a2@+,%sp@-
    8322:	2f02           	movel %d2,%sp@-
    8324:	4e94           	jsr %a4@
    8326:	4fef 000c      	lea %sp@(12),%sp
    832a:	5280           	addql #1,%d0
    832c:	6714           	beqs 8342 <__sfputs_r+0x88>
    832e:	b68a           	cmpl %a2,%d3
    8330:	67ca           	beqs 82fc <__sfputs_r+0x42>
    8332:	2f0b           	movel %a3,%sp@-
    8334:	2f1a           	movel %a2@+,%sp@-
    8336:	2f02           	movel %d2,%sp@-
    8338:	4e94           	jsr %a4@
    833a:	4fef 000c      	lea %sp@(12),%sp
    833e:	5280           	addql #1,%d0
    8340:	66ec           	bnes 832e <__sfputs_r+0x74>
    8342:	70ff           	moveq #-1,%d0
    8344:	4cdf 1c0c      	moveml %sp@+,%d2-%d3/%a2-%a4
    8348:	4e75           	rts

0000834a <__sprint_r>:
    834a:	48e7 3c3e      	moveml %d2-%d5/%a2-%fp,%sp@-
    834e:	282f 0028      	movel %sp@(40),%d4
    8352:	266f 002c      	moveal %sp@(44),%a3
    8356:	2a6f 0030      	moveal %sp@(48),%a5
    835a:	4aad 0008      	tstl %a5@(8)
    835e:	6774           	beqs 83d4 <__sprint_r+0x8a>
    8360:	082b 0005 0066 	btst #5,%a3@(102)
    8366:	674e           	beqs 83b6 <__sprint_r+0x6c>
    8368:	2c55           	moveal %a5@,%fp
    836a:	49f9 0000 8ffe 	lea 8ffe <_fputwc_r>,%a4
    8370:	2456           	moveal %fp@,%a2
    8372:	2a2e 0004      	movel %fp@(4),%d5
    8376:	2605           	movel %d5,%d3
    8378:	e48b           	lsrl #2,%d3
    837a:	671a           	beqs 8396 <__sprint_r+0x4c>
    837c:	7400           	moveq #0,%d2
    837e:	201a           	movel %a2@+,%d0
    8380:	2f0b           	movel %a3,%sp@-
    8382:	2f00           	movel %d0,%sp@-
    8384:	2f04           	movel %d4,%sp@-
    8386:	4e94           	jsr %a4@
    8388:	4fef 000c      	lea %sp@(12),%sp
    838c:	5280           	addql #1,%d0
    838e:	673c           	beqs 83cc <__sprint_r+0x82>
    8390:	5282           	addql #1,%d2
    8392:	b483           	cmpl %d3,%d2
    8394:	66e8           	bnes 837e <__sprint_r+0x34>
    8396:	70fc           	moveq #-4,%d0
    8398:	ca80           	andl %d0,%d5
    839a:	202d 0008      	movel %a5@(8),%d0
    839e:	9085           	subl %d5,%d0
    83a0:	2b40 0008      	movel %d0,%a5@(8)
    83a4:	508e           	addql #8,%fp
    83a6:	66c8           	bnes 8370 <__sprint_r+0x26>
    83a8:	42ad 0008      	clrl %a5@(8)
    83ac:	42ad 0004      	clrl %a5@(4)
    83b0:	4cdf 7c3c      	moveml %sp@+,%d2-%d5/%a2-%fp
    83b4:	4e75           	rts
    83b6:	2f0d           	movel %a5,%sp@-
    83b8:	2f0b           	movel %a3,%sp@-
    83ba:	2f04           	movel %d4,%sp@-
    83bc:	4eb9 0000 94b4 	jsr 94b4 <__sfvwrite_r>
    83c2:	4fef 000c      	lea %sp@(12),%sp
    83c6:	42ad 0008      	clrl %a5@(8)
    83ca:	60e0           	bras 83ac <__sprint_r+0x62>
    83cc:	70ff           	moveq #-1,%d0
    83ce:	42ad 0008      	clrl %a5@(8)
    83d2:	60d8           	bras 83ac <__sprint_r+0x62>
    83d4:	7000           	moveq #0,%d0
    83d6:	42ad 0004      	clrl %a5@(4)
    83da:	4cdf 7c3c      	moveml %sp@+,%d2-%d5/%a2-%fp
    83de:	4e75           	rts

000083e0 <_vfiprintf_r>:
    83e0:	4fef ffa0      	lea %sp@(-96),%sp
    83e4:	48e7 3f3e      	moveml %d2-%d7/%a2-%fp,%sp@-
    83e8:	266f 0094      	moveal %sp@(148),%a3
    83ec:	2a6f 0098      	moveal %sp@(152),%a5
    83f0:	4aaf 0090      	tstl %sp@(144)
    83f4:	670c           	beqs 8402 <_vfiprintf_r+0x22>
    83f6:	206f 0090      	moveal %sp@(144),%a0
    83fa:	4aa8 0036      	tstl %a0@(54)
    83fe:	6700 034e      	beqw 874e <_vfiprintf_r+0x36e>
    8402:	082b 0003 000d 	btst #3,%a3@(13)
    8408:	6700 01c4      	beqw 85ce <_vfiprintf_r+0x1ee>
    840c:	4aab 0010      	tstl %a3@(16)
    8410:	6700 01bc      	beqw 85ce <_vfiprintf_r+0x1ee>
    8414:	42af 0046      	clrl %sp@(70)
    8418:	1f7c 0020 004b 	moveb #32,%sp@(75)
    841e:	1f7c 0030 004c 	moveb #48,%sp@(76)
    8424:	2f6f 009c 002e 	movel %sp@(156),%sp@(46)
    842a:	283c 0000 82ba 	movel #33466,%d4
    8430:	45f9 0000 a42c 	lea a42c <memchr>,%a2
    8436:	7401           	moveq #1,%d2
    8438:	7e32           	moveq #50,%d7
    843a:	de8f           	addl %sp,%d7
    843c:	1015           	moveb %a5@,%d0
    843e:	6700 0178      	beqw 85b8 <_vfiprintf_r+0x1d8>
    8442:	2c4d           	moveal %a5,%fp
    8444:	0c00 0025      	cmpib #37,%d0
    8448:	6700 01a4      	beqw 85ee <_vfiprintf_r+0x20e>
    844c:	528e           	addql #1,%fp
    844e:	1016           	moveb %fp@,%d0
    8450:	66f2           	bnes 8444 <_vfiprintf_r+0x64>
    8452:	2c0e           	movel %fp,%d6
    8454:	9c8d           	subl %a5,%d6
    8456:	bbce           	cmpal %fp,%a5
    8458:	6700 015e      	beqw 85b8 <_vfiprintf_r+0x1d8>
    845c:	2f06           	movel %d6,%sp@-
    845e:	2f0d           	movel %a5,%sp@-
    8460:	2f0b           	movel %a3,%sp@-
    8462:	2f2f 009c      	movel %sp@(156),%sp@-
    8466:	2044           	moveal %d4,%a0
    8468:	4e90           	jsr %a0@
    846a:	4fef 0010      	lea %sp@(16),%sp
    846e:	5280           	addql #1,%d0
    8470:	6700 0146      	beqw 85b8 <_vfiprintf_r+0x1d8>
    8474:	ddaf 0046      	addl %d6,%sp@(70)
    8478:	1016           	moveb %fp@,%d0
    847a:	6700 013c      	beqw 85b8 <_vfiprintf_r+0x1d8>
    847e:	49ee 0001      	lea %fp@(1),%a4
    8482:	42af 0032      	clrl %sp@(50)
    8486:	42af 003e      	clrl %sp@(62)
    848a:	7aff           	moveq #-1,%d5
    848c:	2f45 0036      	movel %d5,%sp@(54)
    8490:	42af 003a      	clrl %sp@(58)
    8494:	422f 0075      	clrb %sp@(117)
    8498:	42af 0088      	clrl %sp@(136)
    849c:	4878 0005      	pea 5 <_start-0x7ffb>
    84a0:	2c4c           	moveal %a4,%fp
    84a2:	101e           	moveb %fp@+,%d0
    84a4:	4880           	extw %d0
    84a6:	3040           	moveaw %d0,%a0
    84a8:	2f08           	movel %a0,%sp@-
    84aa:	4879 0000 b9eb 	pea b9eb <_ctype_+0x101>
    84b0:	4e92           	jsr %a2@
    84b2:	2a4e           	moveal %fp,%a5
    84b4:	4fef 000c      	lea %sp@(12),%sp
    84b8:	4a80           	tstl %d0
    84ba:	6730           	beqs 84ec <_vfiprintf_r+0x10c>
    84bc:	0480 0000 b9eb 	subil #47595,%d0
    84c2:	2202           	movel %d2,%d1
    84c4:	e1a9           	lsll %d0,%d1
    84c6:	83af 0032      	orl %d1,%sp@(50)
    84ca:	284e           	moveal %fp,%a4
    84cc:	4878 0005      	pea 5 <_start-0x7ffb>
    84d0:	2c4c           	moveal %a4,%fp
    84d2:	101e           	moveb %fp@+,%d0
    84d4:	4880           	extw %d0
    84d6:	3040           	moveaw %d0,%a0
    84d8:	2f08           	movel %a0,%sp@-
    84da:	4879 0000 b9eb 	pea b9eb <_ctype_+0x101>
    84e0:	4e92           	jsr %a2@
    84e2:	2a4e           	moveal %fp,%a5
    84e4:	4fef 000c      	lea %sp@(12),%sp
    84e8:	4a80           	tstl %d0
    84ea:	66d0           	bnes 84bc <_vfiprintf_r+0xdc>
    84ec:	222f 0032      	movel %sp@(50),%d1
    84f0:	0801 0004      	btst #4,%d1
    84f4:	6706           	beqs 84fc <_vfiprintf_r+0x11c>
    84f6:	1f7c 0020 0075 	moveb #32,%sp@(117)
    84fc:	0801 0003      	btst #3,%d1
    8500:	6706           	beqs 8508 <_vfiprintf_r+0x128>
    8502:	1f7c 002b 0075 	moveb #43,%sp@(117)
    8508:	1014           	moveb %a4@,%d0
    850a:	0c00 002a      	cmpib #42,%d0
    850e:	6600 00ec      	bnew 85fc <_vfiprintf_r+0x21c>
    8512:	202f 002e      	movel %sp@(46),%d0
    8516:	2a00           	movel %d0,%d5
    8518:	5885           	addql #4,%d5
    851a:	2f45 002e      	movel %d5,%sp@(46)
    851e:	2040           	moveal %d0,%a0
    8520:	2010           	movel %a0@,%d0
    8522:	6b00 01a4      	bmiw 86c8 <_vfiprintf_r+0x2e8>
    8526:	2f40 003e      	movel %d0,%sp@(62)
    852a:	102c 0001      	moveb %a4@(1),%d0
    852e:	0c00 002e      	cmpib #46,%d0
    8532:	6700 0130      	beqw 8664 <_vfiprintf_r+0x284>
    8536:	4880           	extw %d0
    8538:	3240           	moveaw %d0,%a1
    853a:	4878 0003      	pea 3 <_start-0x7ffd>
    853e:	2f09           	movel %a1,%sp@-
    8540:	4879 0000 b9f1 	pea b9f1 <_ctype_+0x107>
    8546:	4e92           	jsr %a2@
    8548:	4fef 000c      	lea %sp@(12),%sp
    854c:	4a80           	tstl %d0
    854e:	6710           	beqs 8560 <_vfiprintf_r+0x180>
    8550:	528d           	addql #1,%a5
    8552:	0480 0000 b9f1 	subil #47601,%d0
    8558:	7240           	moveq #64,%d1
    855a:	e1a9           	lsll %d0,%d1
    855c:	83af 0032      	orl %d1,%sp@(50)
    8560:	101d           	moveb %a5@+,%d0
    8562:	1f40 004a      	moveb %d0,%sp@(74)
    8566:	4878 0006      	pea 6 <_start-0x7ffa>
    856a:	4880           	extw %d0
    856c:	3040           	moveaw %d0,%a0
    856e:	2f08           	movel %a0,%sp@-
    8570:	4879 0000 b9f5 	pea b9f5 <_ctype_+0x10b>
    8576:	4e92           	jsr %a2@
    8578:	4fef 000c      	lea %sp@(12),%sp
    857c:	4a80           	tstl %d0
    857e:	6700 0166      	beqw 86e6 <_vfiprintf_r+0x306>
    8582:	41f9 0000 0000 	lea 0 <_start-0x8000>,%a0
    8588:	b0fc 0000      	cmpaw #0,%a0
    858c:	6700 010a      	beqw 8698 <_vfiprintf_r+0x2b8>
    8590:	486f 002e      	pea %sp@(46)
    8594:	487a fd24      	pea %pc@(82ba <__sfputs_r>)
    8598:	2f0b           	movel %a3,%sp@-
    859a:	2f07           	movel %d7,%sp@-
    859c:	2f2f 00a0      	movel %sp@(160),%sp@-
    85a0:	4e90           	jsr %a0@
    85a2:	2600           	movel %d0,%d3
    85a4:	4fef 0014      	lea %sp@(20),%sp
    85a8:	70ff           	moveq #-1,%d0
    85aa:	b083           	cmpl %d3,%d0
    85ac:	670a           	beqs 85b8 <_vfiprintf_r+0x1d8>
    85ae:	d7af 0046      	addl %d3,%sp@(70)
    85b2:	1015           	moveb %a5@,%d0
    85b4:	6600 fe8c      	bnew 8442 <_vfiprintf_r+0x62>
    85b8:	082b 0006 000d 	btst #6,%a3@(13)
    85be:	6622           	bnes 85e2 <_vfiprintf_r+0x202>
    85c0:	202f 0046      	movel %sp@(70),%d0
    85c4:	4cdf 7cfc      	moveml %sp@+,%d2-%d7/%a2-%fp
    85c8:	4fef 0060      	lea %sp@(96),%sp
    85cc:	4e75           	rts
    85ce:	2f0b           	movel %a3,%sp@-
    85d0:	2f2f 0094      	movel %sp@(148),%sp@-
    85d4:	4eb9 0000 88a4 	jsr 88a4 <__swsetup_r>
    85da:	508f           	addql #8,%sp
    85dc:	4a80           	tstl %d0
    85de:	6700 fe34      	beqw 8414 <_vfiprintf_r+0x34>
    85e2:	70ff           	moveq #-1,%d0
    85e4:	4cdf 7cfc      	moveml %sp@+,%d2-%d7/%a2-%fp
    85e8:	4fef 0060      	lea %sp@(96),%sp
    85ec:	4e75           	rts
    85ee:	2c0e           	movel %fp,%d6
    85f0:	9c8d           	subl %a5,%d6
    85f2:	bbce           	cmpal %fp,%a5
    85f4:	6700 fe82      	beqw 8478 <_vfiprintf_r+0x98>
    85f8:	6000 fe62      	braw 845c <_vfiprintf_r+0x7c>
    85fc:	1200           	moveb %d0,%d1
    85fe:	4881           	extw %d1
    8600:	3041           	moveaw %d1,%a0
    8602:	41e8 ffd0      	lea %a0@(-48),%a0
    8606:	7209           	moveq #9,%d1
    8608:	2a4c           	moveal %a4,%a5
    860a:	b288           	cmpl %a0,%d1
    860c:	6500 ff20      	bcsw 852e <_vfiprintf_r+0x14e>
    8610:	222f 003e      	movel %sp@(62),%d1
    8614:	2001           	movel %d1,%d0
    8616:	d081           	addl %d1,%d0
    8618:	d080           	addl %d0,%d0
    861a:	d081           	addl %d1,%d0
    861c:	d080           	addl %d0,%d0
    861e:	2200           	movel %d0,%d1
    8620:	d288           	addl %a0,%d1
    8622:	1016           	moveb %fp@,%d0
    8624:	1a00           	moveb %d0,%d5
    8626:	4885           	extw %d5
    8628:	3045           	moveaw %d5,%a0
    862a:	41e8 ffd0      	lea %a0@(-48),%a0
    862e:	7a09           	moveq #9,%d5
    8630:	ba88           	cmpl %a0,%d5
    8632:	6522           	bcss 8656 <_vfiprintf_r+0x276>
    8634:	528e           	addql #1,%fp
    8636:	2001           	movel %d1,%d0
    8638:	d081           	addl %d1,%d0
    863a:	d080           	addl %d0,%d0
    863c:	d081           	addl %d1,%d0
    863e:	d080           	addl %d0,%d0
    8640:	2200           	movel %d0,%d1
    8642:	d288           	addl %a0,%d1
    8644:	1016           	moveb %fp@,%d0
    8646:	1a00           	moveb %d0,%d5
    8648:	4885           	extw %d5
    864a:	3045           	moveaw %d5,%a0
    864c:	41e8 ffd0      	lea %a0@(-48),%a0
    8650:	7a09           	moveq #9,%d5
    8652:	ba88           	cmpl %a0,%d5
    8654:	64de           	bccs 8634 <_vfiprintf_r+0x254>
    8656:	2f41 003e      	movel %d1,%sp@(62)
    865a:	2a4e           	moveal %fp,%a5
    865c:	0c00 002e      	cmpib #46,%d0
    8660:	6600 fed4      	bnew 8536 <_vfiprintf_r+0x156>
    8664:	102d 0001      	moveb %a5@(1),%d0
    8668:	0c00 002a      	cmpib #42,%d0
    866c:	6600 00a0      	bnew 870e <_vfiprintf_r+0x32e>
    8670:	220d           	movel %a5,%d1
    8672:	5481           	addql #2,%d1
    8674:	202f 002e      	movel %sp@(46),%d0
    8678:	2a00           	movel %d0,%d5
    867a:	5885           	addql #4,%d5
    867c:	2f45 002e      	movel %d5,%sp@(46)
    8680:	2040           	moveal %d0,%a0
    8682:	2010           	movel %a0@,%d0
    8684:	2f40 0036      	movel %d0,%sp@(54)
    8688:	6b2a           	bmis 86b4 <_vfiprintf_r+0x2d4>
    868a:	102d 0002      	moveb %a5@(2),%d0
    868e:	4880           	extw %d0
    8690:	3240           	moveaw %d0,%a1
    8692:	2a41           	moveal %d1,%a5
    8694:	6000 fea4      	braw 853a <_vfiprintf_r+0x15a>
    8698:	206f 002e      	moveal %sp@(46),%a0
    869c:	082f 0000 0034 	btst #0,%sp@(52)
    86a2:	673a           	beqs 86de <_vfiprintf_r+0x2fe>
    86a4:	41e8 000c      	lea %a0@(12),%a0
    86a8:	2f48 002e      	movel %a0,%sp@(46)
    86ac:	d7af 0046      	addl %d3,%sp@(70)
    86b0:	6000 ff00      	braw 85b2 <_vfiprintf_r+0x1d2>
    86b4:	70ff           	moveq #-1,%d0
    86b6:	2f40 0036      	movel %d0,%sp@(54)
    86ba:	102d 0002      	moveb %a5@(2),%d0
    86be:	4880           	extw %d0
    86c0:	3240           	moveaw %d0,%a1
    86c2:	2a41           	moveal %d1,%a5
    86c4:	6000 fe74      	braw 853a <_vfiprintf_r+0x15a>
    86c8:	4480           	negl %d0
    86ca:	2f40 003e      	movel %d0,%sp@(62)
    86ce:	7002           	moveq #2,%d0
    86d0:	8081           	orl %d1,%d0
    86d2:	2f40 0032      	movel %d0,%sp@(50)
    86d6:	102c 0001      	moveb %a4@(1),%d0
    86da:	6000 fe52      	braw 852e <_vfiprintf_r+0x14e>
    86de:	5088           	addql #8,%a0
    86e0:	2f48 002e      	movel %a0,%sp@(46)
    86e4:	60c6           	bras 86ac <_vfiprintf_r+0x2cc>
    86e6:	486f 002e      	pea %sp@(46)
    86ea:	487a fbce      	pea %pc@(82ba <__sfputs_r>)
    86ee:	2f0b           	movel %a3,%sp@-
    86f0:	2f07           	movel %d7,%sp@-
    86f2:	2f2f 00a0      	movel %sp@(160),%sp@-
    86f6:	4eb9 0000 a8be 	jsr a8be <_printf_i>
    86fc:	2600           	movel %d0,%d3
    86fe:	4fef 0014      	lea %sp@(20),%sp
    8702:	70ff           	moveq #-1,%d0
    8704:	b083           	cmpl %d3,%d0
    8706:	6600 fea6      	bnew 85ae <_vfiprintf_r+0x1ce>
    870a:	6000 feac      	braw 85b8 <_vfiprintf_r+0x1d8>
    870e:	528d           	addql #1,%a5
    8710:	42af 0036      	clrl %sp@(54)
    8714:	4880           	extw %d0
    8716:	3240           	moveaw %d0,%a1
    8718:	41e9 ffd0      	lea %a1@(-48),%a0
    871c:	7209           	moveq #9,%d1
    871e:	b288           	cmpl %a0,%d1
    8720:	6500 fe18      	bcsw 853a <_vfiprintf_r+0x15a>
    8724:	7a00           	moveq #0,%d5
    8726:	2005           	movel %d5,%d0
    8728:	d085           	addl %d5,%d0
    872a:	d080           	addl %d0,%d0
    872c:	d085           	addl %d5,%d0
    872e:	d080           	addl %d0,%d0
    8730:	2a00           	movel %d0,%d5
    8732:	da88           	addl %a0,%d5
    8734:	528d           	addql #1,%a5
    8736:	1015           	moveb %a5@,%d0
    8738:	4880           	extw %d0
    873a:	3240           	moveaw %d0,%a1
    873c:	41e9 ffd0      	lea %a1@(-48),%a0
    8740:	7009           	moveq #9,%d0
    8742:	b088           	cmpl %a0,%d0
    8744:	64e0           	bccs 8726 <_vfiprintf_r+0x346>
    8746:	2f45 0036      	movel %d5,%sp@(54)
    874a:	6000 fdee      	braw 853a <_vfiprintf_r+0x15a>
    874e:	2f08           	movel %a0,%sp@-
    8750:	4eb9 0000 8f06 	jsr 8f06 <__sinit>
    8756:	588f           	addql #4,%sp
    8758:	6000 fca8      	braw 8402 <_vfiprintf_r+0x22>

0000875c <vfiprintf>:
    875c:	2f2f 000c      	movel %sp@(12),%sp@-
    8760:	2f2f 000c      	movel %sp@(12),%sp@-
    8764:	2f2f 000c      	movel %sp@(12),%sp@-
    8768:	2f39 0000 ba28 	movel ba28 <_impure_ptr>,%sp@-
    876e:	4eba fc70      	jsr %pc@(83e0 <_vfiprintf_r>)
    8772:	4fef 0010      	lea %sp@(16),%sp
    8776:	4e75           	rts

00008778 <__swbuf_r>:
    8778:	48e7 3030      	moveml %d2-%d3/%a2-%a3,%sp@-
    877c:	266f 0014      	moveal %sp@(20),%a3
    8780:	246f 001c      	moveal %sp@(28),%a2
    8784:	b6fc 0000      	cmpaw #0,%a3
    8788:	6708           	beqs 8792 <__swbuf_r+0x1a>
    878a:	4aab 0036      	tstl %a3@(54)
    878e:	6700 00ec      	beqw 887c <__swbuf_r+0x104>
    8792:	256a 0018 0008 	movel %a2@(24),%a2@(8)
    8798:	302a 000c      	movew %a2@(12),%d0
    879c:	0800 0003      	btst #3,%d0
    87a0:	6754           	beqs 87f6 <__swbuf_r+0x7e>
    87a2:	206a 0010      	moveal %a2@(16),%a0
    87a6:	b0fc 0000      	cmpaw #0,%a0
    87aa:	674a           	beqs 87f6 <__swbuf_r+0x7e>
    87ac:	7400           	moveq #0,%d2
    87ae:	4602           	notb %d2
    87b0:	c4af 0018      	andl %sp@(24),%d2
    87b4:	0800 000d      	btst #13,%d0
    87b8:	6762           	beqs 881c <__swbuf_r+0xa4>
    87ba:	2212           	movel %a2@,%d1
    87bc:	2001           	movel %d1,%d0
    87be:	9088           	subl %a0,%d0
    87c0:	b0aa 0014      	cmpl %a2@(20),%d0
    87c4:	6c70           	bges 8836 <__swbuf_r+0xbe>
    87c6:	5280           	addql #1,%d0
    87c8:	53aa 0008      	subql #1,%a2@(8)
    87cc:	2601           	movel %d1,%d3
    87ce:	5283           	addql #1,%d3
    87d0:	2483           	movel %d3,%a2@
    87d2:	2041           	moveal %d1,%a0
    87d4:	10af 001b      	moveb %sp@(27),%a0@
    87d8:	b0aa 0014      	cmpl %a2@(20),%d0
    87dc:	6700 0082      	beqw 8860 <__swbuf_r+0xe8>
    87e0:	082a 0000 000d 	btst #0,%a2@(13)
    87e6:	6706           	beqs 87ee <__swbuf_r+0x76>
    87e8:	700a           	moveq #10,%d0
    87ea:	b082           	cmpl %d2,%d0
    87ec:	6772           	beqs 8860 <__swbuf_r+0xe8>
    87ee:	2002           	movel %d2,%d0
    87f0:	4cdf 0c0c      	moveml %sp@+,%d2-%d3/%a2-%a3
    87f4:	4e75           	rts
    87f6:	2f0a           	movel %a2,%sp@-
    87f8:	2f0b           	movel %a3,%sp@-
    87fa:	4eb9 0000 88a4 	jsr 88a4 <__swsetup_r>
    8800:	508f           	addql #8,%sp
    8802:	4a80           	tstl %d0
    8804:	666c           	bnes 8872 <__swbuf_r+0xfa>
    8806:	302a 000c      	movew %a2@(12),%d0
    880a:	206a 0010      	moveal %a2@(16),%a0
    880e:	7400           	moveq #0,%d2
    8810:	4602           	notb %d2
    8812:	c4af 0018      	andl %sp@(24),%d2
    8816:	0800 000d      	btst #13,%d0
    881a:	669e           	bnes 87ba <__swbuf_r+0x42>
    881c:	0040 2000      	oriw #8192,%d0
    8820:	3540 000c      	movew %d0,%a2@(12)
    8824:	026a dfff 0066 	andiw #-8193,%a2@(102)
    882a:	2212           	movel %a2@,%d1
    882c:	2001           	movel %d1,%d0
    882e:	9088           	subl %a0,%d0
    8830:	b0aa 0014      	cmpl %a2@(20),%d0
    8834:	6d90           	blts 87c6 <__swbuf_r+0x4e>
    8836:	2f0a           	movel %a2,%sp@-
    8838:	2f0b           	movel %a3,%sp@-
    883a:	4eb9 0000 8b86 	jsr 8b86 <_fflush_r>
    8840:	508f           	addql #8,%sp
    8842:	4a80           	tstl %d0
    8844:	662c           	bnes 8872 <__swbuf_r+0xfa>
    8846:	2212           	movel %a2@,%d1
    8848:	7001           	moveq #1,%d0
    884a:	53aa 0008      	subql #1,%a2@(8)
    884e:	2601           	movel %d1,%d3
    8850:	5283           	addql #1,%d3
    8852:	2483           	movel %d3,%a2@
    8854:	2041           	moveal %d1,%a0
    8856:	10af 001b      	moveb %sp@(27),%a0@
    885a:	b0aa 0014      	cmpl %a2@(20),%d0
    885e:	6680           	bnes 87e0 <__swbuf_r+0x68>
    8860:	2f0a           	movel %a2,%sp@-
    8862:	2f0b           	movel %a3,%sp@-
    8864:	4eb9 0000 8b86 	jsr 8b86 <_fflush_r>
    886a:	508f           	addql #8,%sp
    886c:	4a80           	tstl %d0
    886e:	6700 ff7e      	beqw 87ee <__swbuf_r+0x76>
    8872:	74ff           	moveq #-1,%d2
    8874:	2002           	movel %d2,%d0
    8876:	4cdf 0c0c      	moveml %sp@+,%d2-%d3/%a2-%a3
    887a:	4e75           	rts
    887c:	2f0b           	movel %a3,%sp@-
    887e:	4eb9 0000 8f06 	jsr 8f06 <__sinit>
    8884:	588f           	addql #4,%sp
    8886:	6000 ff0a      	braw 8792 <__swbuf_r+0x1a>

0000888a <__swbuf>:
    888a:	2f2f 0008      	movel %sp@(8),%sp@-
    888e:	2f2f 0008      	movel %sp@(8),%sp@-
    8892:	2f39 0000 ba28 	movel ba28 <_impure_ptr>,%sp@-
    8898:	4eba fede      	jsr %pc@(8778 <__swbuf_r>)
    889c:	4fef 000c      	lea %sp@(12),%sp
    88a0:	4e75           	rts
	...

000088a4 <__swsetup_r>:
    88a4:	2f0a           	movel %a2,%sp@-
    88a6:	2f02           	movel %d2,%sp@-
    88a8:	246f 0010      	moveal %sp@(16),%a2
    88ac:	2079 0000 ba28 	moveal ba28 <_impure_ptr>,%a0
    88b2:	b0fc 0000      	cmpaw #0,%a0
    88b6:	6708           	beqs 88c0 <__swsetup_r+0x1c>
    88b8:	4aa8 0036      	tstl %a0@(54)
    88bc:	6700 0086      	beqw 8944 <__swsetup_r+0xa0>
    88c0:	322a 000c      	movew %a2@(12),%d1
    88c4:	0801 0003      	btst #3,%d1
    88c8:	6700 0090      	beqw 895a <__swsetup_r+0xb6>
    88cc:	202a 0010      	movel %a2@(16),%d0
    88d0:	6748           	beqs 891a <__swsetup_r+0x76>
    88d2:	0801 0000      	btst #0,%d1
    88d6:	661c           	bnes 88f4 <__swsetup_r+0x50>
    88d8:	0801 0001      	btst #1,%d1
    88dc:	6600 009c      	bnew 897a <__swsetup_r+0xd6>
    88e0:	206a 0014      	moveal %a2@(20),%a0
    88e4:	2548 0008      	movel %a0,%a2@(8)
    88e8:	4a80           	tstl %d0
    88ea:	671a           	beqs 8906 <__swsetup_r+0x62>
    88ec:	7000           	moveq #0,%d0
    88ee:	241f           	movel %sp@+,%d2
    88f0:	245f           	moveal %sp@+,%a2
    88f2:	4e75           	rts
    88f4:	42aa 0008      	clrl %a2@(8)
    88f8:	242a 0014      	movel %a2@(20),%d2
    88fc:	4482           	negl %d2
    88fe:	2542 0018      	movel %d2,%a2@(24)
    8902:	4a80           	tstl %d0
    8904:	66e6           	bnes 88ec <__swsetup_r+0x48>
    8906:	4a01           	tstb %d1
    8908:	6ae4           	bpls 88ee <__swsetup_r+0x4a>
    890a:	0041 0040      	oriw #64,%d1
    890e:	3541 000c      	movew %d1,%a2@(12)
    8912:	70ff           	moveq #-1,%d0
    8914:	241f           	movel %sp@+,%d2
    8916:	245f           	moveal %sp@+,%a2
    8918:	4e75           	rts
    891a:	3401           	movew %d1,%d2
    891c:	0242 0280      	andiw #640,%d2
    8920:	0c42 0200      	cmpiw #512,%d2
    8924:	67ac           	beqs 88d2 <__swsetup_r+0x2e>
    8926:	2f0a           	movel %a2,%sp@-
    8928:	2f2f 0010      	movel %sp@(16),%sp@-
    892c:	4eb9 0000 99cc 	jsr 99cc <__smakebuf_r>
    8932:	322a 000c      	movew %a2@(12),%d1
    8936:	202a 0010      	movel %a2@(16),%d0
    893a:	508f           	addql #8,%sp
    893c:	0801 0000      	btst #0,%d1
    8940:	6796           	beqs 88d8 <__swsetup_r+0x34>
    8942:	60b0           	bras 88f4 <__swsetup_r+0x50>
    8944:	2f08           	movel %a0,%sp@-
    8946:	4eb9 0000 8f06 	jsr 8f06 <__sinit>
    894c:	588f           	addql #4,%sp
    894e:	322a 000c      	movew %a2@(12),%d1
    8952:	0801 0003      	btst #3,%d1
    8956:	6600 ff74      	bnew 88cc <__swsetup_r+0x28>
    895a:	0801 0004      	btst #4,%d1
    895e:	6760           	beqs 89c0 <__swsetup_r+0x11c>
    8960:	0801 0002      	btst #2,%d1
    8964:	661e           	bnes 8984 <__swsetup_r+0xe0>
    8966:	202a 0010      	movel %a2@(16),%d0
    896a:	0041 0008      	oriw #8,%d1
    896e:	3541 000c      	movew %d1,%a2@(12)
    8972:	4a80           	tstl %d0
    8974:	6600 ff5c      	bnew 88d2 <__swsetup_r+0x2e>
    8978:	60a0           	bras 891a <__swsetup_r+0x76>
    897a:	91c8           	subal %a0,%a0
    897c:	2548 0008      	movel %a0,%a2@(8)
    8980:	6000 ff66      	braw 88e8 <__swsetup_r+0x44>
    8984:	202a 0030      	movel %a2@(48),%d0
    8988:	671e           	beqs 89a8 <__swsetup_r+0x104>
    898a:	41ea 0040      	lea %a2@(64),%a0
    898e:	b1c0           	cmpal %d0,%a0
    8990:	6712           	beqs 89a4 <__swsetup_r+0x100>
    8992:	2f00           	movel %d0,%sp@-
    8994:	2f2f 0010      	movel %sp@(16),%sp@-
    8998:	4eb9 0000 9162 	jsr 9162 <_free_r>
    899e:	322a 000c      	movew %a2@(12),%d1
    89a2:	508f           	addql #8,%sp
    89a4:	42aa 0030      	clrl %a2@(48)
    89a8:	0241 ffdb      	andiw #-37,%d1
    89ac:	42aa 0004      	clrl %a2@(4)
    89b0:	202a 0010      	movel %a2@(16),%d0
    89b4:	2480           	movel %d0,%a2@
    89b6:	0041 0008      	oriw #8,%d1
    89ba:	3541 000c      	movew %d1,%a2@(12)
    89be:	60b2           	bras 8972 <__swsetup_r+0xce>
    89c0:	7009           	moveq #9,%d0
    89c2:	206f 000c      	moveal %sp@(12),%a0
    89c6:	2080           	movel %d0,%a0@
    89c8:	0041 0040      	oriw #64,%d1
    89cc:	3541 000c      	movew %d1,%a2@(12)
    89d0:	70ff           	moveq #-1,%d0
    89d2:	6000 ff40      	braw 8914 <__swsetup_r+0x70>
	...

000089d8 <__sflush_r>:
    89d8:	48e7 3030      	moveml %d2-%d3/%a2-%a3,%sp@-
    89dc:	266f 0014      	moveal %sp@(20),%a3
    89e0:	246f 0018      	moveal %sp@(24),%a2
    89e4:	322a 000c      	movew %a2@(12),%d1
    89e8:	0801 0003      	btst #3,%d1
    89ec:	6600 00b4      	bnew 8aa2 <__sflush_r+0xca>
    89f0:	3401           	movew %d1,%d2
    89f2:	0042 0800      	oriw #2048,%d2
    89f6:	3542 000c      	movew %d2,%a2@(12)
    89fa:	4aaa 0004      	tstl %a2@(4)
    89fe:	6f00 010c      	blew 8b0c <__sflush_r+0x134>
    8a02:	206a 0028      	moveal %a2@(40),%a0
    8a06:	b0fc 0000      	cmpaw #0,%a0
    8a0a:	6700 008e      	beqw 8a9a <__sflush_r+0xc2>
    8a0e:	2613           	movel %a3@,%d3
    8a10:	4293           	clrl %a3@
    8a12:	202a 001c      	movel %a2@(28),%d0
    8a16:	0801 000c      	btst #12,%d1
    8a1a:	6700 010a      	beqw 8b26 <__sflush_r+0x14e>
    8a1e:	202a 0050      	movel %a2@(80),%d0
    8a22:	0802 0002      	btst #2,%d2
    8a26:	670e           	beqs 8a36 <__sflush_r+0x5e>
    8a28:	90aa 0004      	subl %a2@(4),%d0
    8a2c:	4aaa 0030      	tstl %a2@(48)
    8a30:	6704           	beqs 8a36 <__sflush_r+0x5e>
    8a32:	90aa 003c      	subl %a2@(60),%d0
    8a36:	42a7           	clrl %sp@-
    8a38:	2f00           	movel %d0,%sp@-
    8a3a:	2f2a 001c      	movel %a2@(28),%sp@-
    8a3e:	2f0b           	movel %a3,%sp@-
    8a40:	4e90           	jsr %a0@
    8a42:	4fef 0010      	lea %sp@(16),%sp
    8a46:	72ff           	moveq #-1,%d1
    8a48:	b280           	cmpl %d0,%d1
    8a4a:	6600 0114      	bnew 8b60 <__sflush_r+0x188>
    8a4e:	2053           	moveal %a3@,%a0
    8a50:	322a 000c      	movew %a2@(12),%d1
    8a54:	b0fc 0000      	cmpaw #0,%a0
    8a58:	6700 010a      	beqw 8b64 <__sflush_r+0x18c>
    8a5c:	741d           	moveq #29,%d2
    8a5e:	b488           	cmpl %a0,%d2
    8a60:	6708           	beqs 8a6a <__sflush_r+0x92>
    8a62:	7016           	moveq #22,%d0
    8a64:	b088           	cmpl %a0,%d0
    8a66:	6600 0094      	bnew 8afc <__sflush_r+0x124>
    8a6a:	0241 f7ff      	andiw #-2049,%d1
    8a6e:	3541 000c      	movew %d1,%a2@(12)
    8a72:	42aa 0004      	clrl %a2@(4)
    8a76:	24aa 0010      	movel %a2@(16),%a2@
    8a7a:	2683           	movel %d3,%a3@
    8a7c:	202a 0030      	movel %a2@(48),%d0
    8a80:	6718           	beqs 8a9a <__sflush_r+0xc2>
    8a82:	41ea 0040      	lea %a2@(64),%a0
    8a86:	b1c0           	cmpal %d0,%a0
    8a88:	670c           	beqs 8a96 <__sflush_r+0xbe>
    8a8a:	2f00           	movel %d0,%sp@-
    8a8c:	2f0b           	movel %a3,%sp@-
    8a8e:	4eb9 0000 9162 	jsr 9162 <_free_r>
    8a94:	508f           	addql #8,%sp
    8a96:	42aa 0030      	clrl %a2@(48)
    8a9a:	7000           	moveq #0,%d0
    8a9c:	4cdf 0c0c      	moveml %sp@+,%d2-%d3/%a2-%a3
    8aa0:	4e75           	rts
    8aa2:	262a 0010      	movel %a2@(16),%d3
    8aa6:	67f2           	beqs 8a9a <__sflush_r+0xc2>
    8aa8:	2412           	movel %a2@,%d2
    8aaa:	9483           	subl %d3,%d2
    8aac:	2483           	movel %d3,%a2@
    8aae:	0241 0003      	andiw #3,%d1
    8ab2:	6664           	bnes 8b18 <__sflush_r+0x140>
    8ab4:	202a 0014      	movel %a2@(20),%d0
    8ab8:	2540 0008      	movel %d0,%a2@(8)
    8abc:	4a82           	tstl %d2
    8abe:	6fda           	bles 8a9a <__sflush_r+0xc2>
    8ac0:	2f02           	movel %d2,%sp@-
    8ac2:	2f03           	movel %d3,%sp@-
    8ac4:	2f2a 001c      	movel %a2@(28),%sp@-
    8ac8:	2f0b           	movel %a3,%sp@-
    8aca:	206a 0024      	moveal %a2@(36),%a0
    8ace:	4e90           	jsr %a0@
    8ad0:	4fef 0010      	lea %sp@(16),%sp
    8ad4:	4a80           	tstl %d0
    8ad6:	6f20           	bles 8af8 <__sflush_r+0x120>
    8ad8:	d680           	addl %d0,%d3
    8ada:	9480           	subl %d0,%d2
    8adc:	4a82           	tstl %d2
    8ade:	6fba           	bles 8a9a <__sflush_r+0xc2>
    8ae0:	2f02           	movel %d2,%sp@-
    8ae2:	2f03           	movel %d3,%sp@-
    8ae4:	2f2a 001c      	movel %a2@(28),%sp@-
    8ae8:	2f0b           	movel %a3,%sp@-
    8aea:	206a 0024      	moveal %a2@(36),%a0
    8aee:	4e90           	jsr %a0@
    8af0:	4fef 0010      	lea %sp@(16),%sp
    8af4:	4a80           	tstl %d0
    8af6:	6ee0           	bgts 8ad8 <__sflush_r+0x100>
    8af8:	322a 000c      	movew %a2@(12),%d1
    8afc:	0041 0040      	oriw #64,%d1
    8b00:	3541 000c      	movew %d1,%a2@(12)
    8b04:	70ff           	moveq #-1,%d0
    8b06:	4cdf 0c0c      	moveml %sp@+,%d2-%d3/%a2-%a3
    8b0a:	4e75           	rts
    8b0c:	4aaa 003c      	tstl %a2@(60)
    8b10:	6e00 fef0      	bgtw 8a02 <__sflush_r+0x2a>
    8b14:	7000           	moveq #0,%d0
    8b16:	6084           	bras 8a9c <__sflush_r+0xc4>
    8b18:	7000           	moveq #0,%d0
    8b1a:	2540 0008      	movel %d0,%a2@(8)
    8b1e:	4a82           	tstl %d2
    8b20:	6e9e           	bgts 8ac0 <__sflush_r+0xe8>
    8b22:	6000 ff76      	braw 8a9a <__sflush_r+0xc2>
    8b26:	4878 0001      	pea 1 <_start-0x7fff>
    8b2a:	42a7           	clrl %sp@-
    8b2c:	2f00           	movel %d0,%sp@-
    8b2e:	2f0b           	movel %a3,%sp@-
    8b30:	4e90           	jsr %a0@
    8b32:	4fef 0010      	lea %sp@(16),%sp
    8b36:	72ff           	moveq #-1,%d1
    8b38:	b280           	cmpl %d0,%d1
    8b3a:	670c           	beqs 8b48 <__sflush_r+0x170>
    8b3c:	342a 000c      	movew %a2@(12),%d2
    8b40:	206a 0028      	moveal %a2@(40),%a0
    8b44:	6000 fedc      	braw 8a22 <__sflush_r+0x4a>
    8b48:	2213           	movel %a3@,%d1
    8b4a:	67f0           	beqs 8b3c <__sflush_r+0x164>
    8b4c:	741d           	moveq #29,%d2
    8b4e:	b481           	cmpl %d1,%d2
    8b50:	6706           	beqs 8b58 <__sflush_r+0x180>
    8b52:	7016           	moveq #22,%d0
    8b54:	b081           	cmpl %d1,%d0
    8b56:	66a0           	bnes 8af8 <__sflush_r+0x120>
    8b58:	2683           	movel %d3,%a3@
    8b5a:	7000           	moveq #0,%d0
    8b5c:	6000 ff3e      	braw 8a9c <__sflush_r+0xc4>
    8b60:	322a 000c      	movew %a2@(12),%d1
    8b64:	3401           	movew %d1,%d2
    8b66:	0242 f7ff      	andiw #-2049,%d2
    8b6a:	3542 000c      	movew %d2,%a2@(12)
    8b6e:	42aa 0004      	clrl %a2@(4)
    8b72:	24aa 0010      	movel %a2@(16),%a2@
    8b76:	0801 000c      	btst #12,%d1
    8b7a:	6700 fefe      	beqw 8a7a <__sflush_r+0xa2>
    8b7e:	2540 0050      	movel %d0,%a2@(80)
    8b82:	6000 fef6      	braw 8a7a <__sflush_r+0xa2>

00008b86 <_fflush_r>:
    8b86:	2f0b           	movel %a3,%sp@-
    8b88:	2f0a           	movel %a2,%sp@-
    8b8a:	246f 000c      	moveal %sp@(12),%a2
    8b8e:	266f 0010      	moveal %sp@(16),%a3
    8b92:	b4fc 0000      	cmpaw #0,%a2
    8b96:	6706           	beqs 8b9e <_fflush_r+0x18>
    8b98:	4aaa 0036      	tstl %a2@(54)
    8b9c:	670e           	beqs 8bac <_fflush_r+0x26>
    8b9e:	4a6b 000c      	tstw %a3@(12)
    8ba2:	6618           	bnes 8bbc <_fflush_r+0x36>
    8ba4:	7000           	moveq #0,%d0
    8ba6:	245f           	moveal %sp@+,%a2
    8ba8:	265f           	moveal %sp@+,%a3
    8baa:	4e75           	rts
    8bac:	2f0a           	movel %a2,%sp@-
    8bae:	4eb9 0000 8f06 	jsr 8f06 <__sinit>
    8bb4:	588f           	addql #4,%sp
    8bb6:	4a6b 000c      	tstw %a3@(12)
    8bba:	67e8           	beqs 8ba4 <_fflush_r+0x1e>
    8bbc:	2f4b 0010      	movel %a3,%sp@(16)
    8bc0:	2f4a 000c      	movel %a2,%sp@(12)
    8bc4:	245f           	moveal %sp@+,%a2
    8bc6:	265f           	moveal %sp@+,%a3
    8bc8:	6000 fe0e      	braw 89d8 <__sflush_r>

00008bcc <fflush>:
    8bcc:	2f0b           	movel %a3,%sp@-
    8bce:	2f0a           	movel %a2,%sp@-
    8bd0:	246f 000c      	moveal %sp@(12),%a2
    8bd4:	b4fc 0000      	cmpaw #0,%a2
    8bd8:	6742           	beqs 8c1c <fflush+0x50>
    8bda:	2679 0000 ba28 	moveal ba28 <_impure_ptr>,%a3
    8be0:	b6fc 0000      	cmpaw #0,%a3
    8be4:	6706           	beqs 8bec <fflush+0x20>
    8be6:	4aab 0036      	tstl %a3@(54)
    8bea:	671e           	beqs 8c0a <fflush+0x3e>
    8bec:	4a6a 000c      	tstw %a2@(12)
    8bf0:	6608           	bnes 8bfa <fflush+0x2e>
    8bf2:	7000           	moveq #0,%d0
    8bf4:	245f           	moveal %sp@+,%a2
    8bf6:	265f           	moveal %sp@+,%a3
    8bf8:	4e75           	rts
    8bfa:	2f0a           	movel %a2,%sp@-
    8bfc:	2f0b           	movel %a3,%sp@-
    8bfe:	4eba fdd8      	jsr %pc@(89d8 <__sflush_r>)
    8c02:	508f           	addql #8,%sp
    8c04:	245f           	moveal %sp@+,%a2
    8c06:	265f           	moveal %sp@+,%a3
    8c08:	4e75           	rts
    8c0a:	2f0b           	movel %a3,%sp@-
    8c0c:	4eb9 0000 8f06 	jsr 8f06 <__sinit>
    8c12:	588f           	addql #4,%sp
    8c14:	4a6a 000c      	tstw %a2@(12)
    8c18:	67d8           	beqs 8bf2 <fflush+0x26>
    8c1a:	60de           	bras 8bfa <fflush+0x2e>
    8c1c:	487a ff68      	pea %pc@(8b86 <_fflush_r>)
    8c20:	2f39 0000 b8e6 	movel b8e6 <_global_impure_ptr>,%sp@-
    8c26:	4eb9 0000 98c0 	jsr 98c0 <_fwalk_reent>
    8c2c:	508f           	addql #8,%sp
    8c2e:	245f           	moveal %sp@+,%a2
    8c30:	265f           	moveal %sp@+,%a3
    8c32:	4e75           	rts

00008c34 <__fp_lock>:
    8c34:	7000           	moveq #0,%d0
    8c36:	4e75           	rts

00008c38 <_cleanup_r>:
    8c38:	4879 0000 8b86 	pea 8b86 <_fflush_r>
    8c3e:	2f2f 0008      	movel %sp@(8),%sp@-
    8c42:	4eb9 0000 98c0 	jsr 98c0 <_fwalk_reent>
    8c48:	508f           	addql #8,%sp
    8c4a:	4e75           	rts

00008c4c <__fp_unlock>:
    8c4c:	7000           	moveq #0,%d0
    8c4e:	4e75           	rts

00008c50 <__sinit.part.0>:
    8c50:	48e7 0038      	moveml %a2-%a4,%sp@-
    8c54:	266f 0010      	moveal %sp@(16),%a3
    8c58:	277c 0000 8c38 	movel #35896,%a3@(58)
    8c5e:	003a 
    8c60:	42ab 02de      	clrl %a3@(734)
    8c64:	7003           	moveq #3,%d0
    8c66:	2740 02e2      	movel %d0,%a3@(738)
    8c6a:	41eb 02ea      	lea %a3@(746),%a0
    8c6e:	2748 02e6      	movel %a0,%a3@(742)
    8c72:	246b 0004      	moveal %a3@(4),%a2
    8c76:	4292           	clrl %a2@
    8c78:	42aa 0004      	clrl %a2@(4)
    8c7c:	42aa 0008      	clrl %a2@(8)
    8c80:	357c 0004 000c 	movew #4,%a2@(12)
    8c86:	42aa 0064      	clrl %a2@(100)
    8c8a:	426a 000e      	clrw %a2@(14)
    8c8e:	42aa 0010      	clrl %a2@(16)
    8c92:	42aa 0014      	clrl %a2@(20)
    8c96:	42aa 0018      	clrl %a2@(24)
    8c9a:	4878 0008      	pea 8 <_start-0x7ff8>
    8c9e:	42a7           	clrl %sp@-
    8ca0:	486a 005c      	pea %a2@(92)
    8ca4:	49f9 0000 a694 	lea a694 <memset>,%a4
    8caa:	4e94           	jsr %a4@
    8cac:	254a 001c      	movel %a2,%a2@(28)
    8cb0:	257c 0000 b29c 	movel #45724,%a2@(32)
    8cb6:	0020 
    8cb8:	257c 0000 b2d8 	movel #45784,%a2@(36)
    8cbe:	0024 
    8cc0:	257c 0000 b35e 	movel #45918,%a2@(40)
    8cc6:	0028 
    8cc8:	257c 0000 b39e 	movel #45982,%a2@(44)
    8cce:	002c 
    8cd0:	246b 0008      	moveal %a3@(8),%a2
    8cd4:	4292           	clrl %a2@
    8cd6:	42aa 0004      	clrl %a2@(4)
    8cda:	42aa 0008      	clrl %a2@(8)
    8cde:	357c 0009 000c 	movew #9,%a2@(12)
    8ce4:	42aa 0064      	clrl %a2@(100)
    8ce8:	357c 0001 000e 	movew #1,%a2@(14)
    8cee:	42aa 0010      	clrl %a2@(16)
    8cf2:	42aa 0014      	clrl %a2@(20)
    8cf6:	42aa 0018      	clrl %a2@(24)
    8cfa:	4878 0008      	pea 8 <_start-0x7ff8>
    8cfe:	42a7           	clrl %sp@-
    8d00:	486a 005c      	pea %a2@(92)
    8d04:	4e94           	jsr %a4@
    8d06:	254a 001c      	movel %a2,%a2@(28)
    8d0a:	257c 0000 b29c 	movel #45724,%a2@(32)
    8d10:	0020 
    8d12:	257c 0000 b2d8 	movel #45784,%a2@(36)
    8d18:	0024 
    8d1a:	257c 0000 b35e 	movel #45918,%a2@(40)
    8d20:	0028 
    8d22:	257c 0000 b39e 	movel #45982,%a2@(44)
    8d28:	002c 
    8d2a:	246b 000c      	moveal %a3@(12),%a2
    8d2e:	4292           	clrl %a2@
    8d30:	42aa 0004      	clrl %a2@(4)
    8d34:	42aa 0008      	clrl %a2@(8)
    8d38:	357c 0012 000c 	movew #18,%a2@(12)
    8d3e:	42aa 0064      	clrl %a2@(100)
    8d42:	357c 0002 000e 	movew #2,%a2@(14)
    8d48:	42aa 0010      	clrl %a2@(16)
    8d4c:	42aa 0014      	clrl %a2@(20)
    8d50:	42aa 0018      	clrl %a2@(24)
    8d54:	4878 0008      	pea 8 <_start-0x7ff8>
    8d58:	42a7           	clrl %sp@-
    8d5a:	486a 005c      	pea %a2@(92)
    8d5e:	4e94           	jsr %a4@
    8d60:	254a 001c      	movel %a2,%a2@(28)
    8d64:	257c 0000 b29c 	movel #45724,%a2@(32)
    8d6a:	0020 
    8d6c:	257c 0000 b2d8 	movel #45784,%a2@(36)
    8d72:	0024 
    8d74:	257c 0000 b35e 	movel #45918,%a2@(40)
    8d7a:	0028 
    8d7c:	257c 0000 b39e 	movel #45982,%a2@(44)
    8d82:	002c 
    8d84:	7001           	moveq #1,%d0
    8d86:	2740 0036      	movel %d0,%a3@(54)
    8d8a:	4fef 0024      	lea %sp@(36),%sp
    8d8e:	4cdf 1c00      	moveml %sp@+,%a2-%a4
    8d92:	4e75           	rts

00008d94 <__sfmoreglue>:
    8d94:	2f0b           	movel %a3,%sp@-
    8d96:	2f0a           	movel %a2,%sp@-
    8d98:	222f 0010      	movel %sp@(16),%d1
    8d9c:	5381           	subql #1,%d1
    8d9e:	2001           	movel %d1,%d0
    8da0:	d081           	addl %d1,%d0
    8da2:	d081           	addl %d1,%d0
    8da4:	d080           	addl %d0,%d0
    8da6:	d080           	addl %d0,%d0
    8da8:	d081           	addl %d1,%d0
    8daa:	e788           	lsll #3,%d0
    8dac:	2440           	moveal %d0,%a2
    8dae:	486a 0074      	pea %a2@(116)
    8db2:	2f2f 0010      	movel %sp@(16),%sp@-
    8db6:	4eb9 0000 9ba4 	jsr 9ba4 <_malloc_r>
    8dbc:	2640           	moveal %d0,%a3
    8dbe:	508f           	addql #8,%sp
    8dc0:	4a80           	tstl %d0
    8dc2:	6722           	beqs 8de6 <__sfmoreglue+0x52>
    8dc4:	4293           	clrl %a3@
    8dc6:	276f 0010 0004 	movel %sp@(16),%a3@(4)
    8dcc:	41eb 000c      	lea %a3@(12),%a0
    8dd0:	2748 0008      	movel %a0,%a3@(8)
    8dd4:	486a 0068      	pea %a2@(104)
    8dd8:	42a7           	clrl %sp@-
    8dda:	2f08           	movel %a0,%sp@-
    8ddc:	4eb9 0000 a694 	jsr a694 <memset>
    8de2:	4fef 000c      	lea %sp@(12),%sp
    8de6:	200b           	movel %a3,%d0
    8de8:	245f           	moveal %sp@+,%a2
    8dea:	265f           	moveal %sp@+,%a3
    8dec:	4e75           	rts

00008dee <__sfp>:
    8dee:	2f0b           	movel %a3,%sp@-
    8df0:	2f0a           	movel %a2,%sp@-
    8df2:	2679 0000 b8e6 	moveal b8e6 <_global_impure_ptr>,%a3
    8df8:	4aab 0036      	tstl %a3@(54)
    8dfc:	6700 0090      	beqw 8e8e <__sfp+0xa0>
    8e00:	47eb 02de      	lea %a3@(734),%a3
    8e04:	246b 0008      	moveal %a3@(8),%a2
    8e08:	202b 0004      	movel %a3@(4),%d0
    8e0c:	5380           	subql #1,%d0
    8e0e:	6b14           	bmis 8e24 <__sfp+0x36>
    8e10:	4a6a 000c      	tstw %a2@(12)
    8e14:	6726           	beqs 8e3c <__sfp+0x4e>
    8e16:	45ea 0068      	lea %a2@(104),%a2
    8e1a:	51c8 fff4      	dbf %d0,8e10 <__sfp+0x22>
    8e1e:	4240           	clrw %d0
    8e20:	5380           	subql #1,%d0
    8e22:	64ec           	bccs 8e10 <__sfp+0x22>
    8e24:	2453           	moveal %a3@,%a2
    8e26:	b4fc 0000      	cmpaw #0,%a2
    8e2a:	6772           	beqs 8e9e <__sfp+0xb0>
    8e2c:	264a           	moveal %a2,%a3
    8e2e:	246b 0008      	moveal %a3@(8),%a2
    8e32:	202b 0004      	movel %a3@(4),%d0
    8e36:	5380           	subql #1,%d0
    8e38:	6ad6           	bpls 8e10 <__sfp+0x22>
    8e3a:	60e8           	bras 8e24 <__sfp+0x36>
    8e3c:	357c ffff 000e 	movew #-1,%a2@(14)
    8e42:	357c 0001 000c 	movew #1,%a2@(12)
    8e48:	42aa 0064      	clrl %a2@(100)
    8e4c:	4292           	clrl %a2@
    8e4e:	42aa 0008      	clrl %a2@(8)
    8e52:	42aa 0004      	clrl %a2@(4)
    8e56:	42aa 0010      	clrl %a2@(16)
    8e5a:	42aa 0014      	clrl %a2@(20)
    8e5e:	42aa 0018      	clrl %a2@(24)
    8e62:	4878 0008      	pea 8 <_start-0x7ff8>
    8e66:	42a7           	clrl %sp@-
    8e68:	486a 005c      	pea %a2@(92)
    8e6c:	4eb9 0000 a694 	jsr a694 <memset>
    8e72:	42aa 0030      	clrl %a2@(48)
    8e76:	42aa 0034      	clrl %a2@(52)
    8e7a:	42aa 0044      	clrl %a2@(68)
    8e7e:	42aa 0048      	clrl %a2@(72)
    8e82:	4fef 000c      	lea %sp@(12),%sp
    8e86:	200a           	movel %a2,%d0
    8e88:	245f           	moveal %sp@+,%a2
    8e8a:	265f           	moveal %sp@+,%a3
    8e8c:	4e75           	rts
    8e8e:	2f0b           	movel %a3,%sp@-
    8e90:	4eba fdbe      	jsr %pc@(8c50 <__sinit.part.0>)
    8e94:	588f           	addql #4,%sp
    8e96:	47eb 02de      	lea %a3@(734),%a3
    8e9a:	6000 ff68      	braw 8e04 <__sfp+0x16>
    8e9e:	4878 01ac      	pea 1ac <_start-0x7e54>
    8ea2:	2f2f 0010      	movel %sp@(16),%sp@-
    8ea6:	4eb9 0000 9ba4 	jsr 9ba4 <_malloc_r>
    8eac:	2440           	moveal %d0,%a2
    8eae:	508f           	addql #8,%sp
    8eb0:	4a80           	tstl %d0
    8eb2:	672a           	beqs 8ede <__sfp+0xf0>
    8eb4:	4292           	clrl %a2@
    8eb6:	7004           	moveq #4,%d0
    8eb8:	2540 0004      	movel %d0,%a2@(4)
    8ebc:	41ea 000c      	lea %a2@(12),%a0
    8ec0:	2548 0008      	movel %a0,%a2@(8)
    8ec4:	4878 01a0      	pea 1a0 <_start-0x7e60>
    8ec8:	42a7           	clrl %sp@-
    8eca:	2f08           	movel %a0,%sp@-
    8ecc:	4eb9 0000 a694 	jsr a694 <memset>
    8ed2:	268a           	movel %a2,%a3@
    8ed4:	4fef 000c      	lea %sp@(12),%sp
    8ed8:	264a           	moveal %a2,%a3
    8eda:	6000 ff52      	braw 8e2e <__sfp+0x40>
    8ede:	4293           	clrl %a3@
    8ee0:	700c           	moveq #12,%d0
    8ee2:	206f 000c      	moveal %sp@(12),%a0
    8ee6:	2080           	movel %d0,%a0@
    8ee8:	200a           	movel %a2,%d0
    8eea:	245f           	moveal %sp@+,%a2
    8eec:	265f           	moveal %sp@+,%a3
    8eee:	4e75           	rts

00008ef0 <_cleanup>:
    8ef0:	4879 0000 8b86 	pea 8b86 <_fflush_r>
    8ef6:	2f39 0000 b8e6 	movel b8e6 <_global_impure_ptr>,%sp@-
    8efc:	4eb9 0000 98c0 	jsr 98c0 <_fwalk_reent>
    8f02:	508f           	addql #8,%sp
    8f04:	4e75           	rts

00008f06 <__sinit>:
    8f06:	206f 0004      	moveal %sp@(4),%a0
    8f0a:	4aa8 0036      	tstl %a0@(54)
    8f0e:	6702           	beqs 8f12 <__sinit+0xc>
    8f10:	4e75           	rts
    8f12:	6000 fd3c      	braw 8c50 <__sinit.part.0>

00008f16 <__sfp_lock_acquire>:
    8f16:	4e75           	rts

00008f18 <__sfp_lock_release>:
    8f18:	4e75           	rts

00008f1a <__sinit_lock_acquire>:
    8f1a:	4e75           	rts

00008f1c <__sinit_lock_release>:
    8f1c:	4e75           	rts

00008f1e <__fp_lock_all>:
    8f1e:	487a fd14      	pea %pc@(8c34 <__fp_lock>)
    8f22:	2f39 0000 ba28 	movel ba28 <_impure_ptr>,%sp@-
    8f28:	4eb9 0000 986c 	jsr 986c <_fwalk>
    8f2e:	508f           	addql #8,%sp
    8f30:	4e75           	rts

00008f32 <__fp_unlock_all>:
    8f32:	487a fd18      	pea %pc@(8c4c <__fp_unlock>)
    8f36:	2f39 0000 ba28 	movel ba28 <_impure_ptr>,%sp@-
    8f3c:	4eb9 0000 986c 	jsr 986c <_fwalk>
    8f42:	508f           	addql #8,%sp
    8f44:	4e75           	rts
	...

00008f48 <__fputwc>:
    8f48:	4e56 fffc      	linkw %fp,#-4
    8f4c:	48e7 3820      	moveml %d2-%d4/%a2,%sp@-
    8f50:	282e 0008      	movel %fp@(8),%d4
    8f54:	262e 000c      	movel %fp@(12),%d3
    8f58:	246e 0010      	moveal %fp@(16),%a2
    8f5c:	4eb9 0000 996c 	jsr 996c <__locale_mb_cur_max>
    8f62:	5380           	subql #1,%d0
    8f64:	6644           	bnes 8faa <__fputwc+0x62>
    8f66:	2003           	movel %d3,%d0
    8f68:	5380           	subql #1,%d0
    8f6a:	0c80 0000 00fe 	cmpil #254,%d0
    8f70:	6238           	bhis 8faa <__fputwc+0x62>
    8f72:	1d43 ffff      	moveb %d3,%fp@(-1)
    8f76:	142e ffff      	moveb %fp@(-1),%d2
    8f7a:	222a 0008      	movel %a2@(8),%d1
    8f7e:	5381           	subql #1,%d1
    8f80:	2541 0008      	movel %d1,%a2@(8)
    8f84:	6a0c           	bpls 8f92 <__fputwc+0x4a>
    8f86:	b2aa 0018      	cmpl %a2@(24),%d1
    8f8a:	6d42           	blts 8fce <__fputwc+0x86>
    8f8c:	0c02 000a      	cmpib #10,%d2
    8f90:	673c           	beqs 8fce <__fputwc+0x86>
    8f92:	2212           	movel %a2@,%d1
    8f94:	2001           	movel %d1,%d0
    8f96:	5280           	addql #1,%d0
    8f98:	2480           	movel %d0,%a2@
    8f9a:	2041           	moveal %d1,%a0
    8f9c:	1082           	moveb %d2,%a0@
    8f9e:	2003           	movel %d3,%d0
    8fa0:	4cee 041c ffec 	moveml %fp@(-20),%d2-%d4/%a2
    8fa6:	4e5e           	unlk %fp
    8fa8:	4e75           	rts
    8faa:	486a 005c      	pea %a2@(92)
    8fae:	2f03           	movel %d3,%sp@-
    8fb0:	486e ffff      	pea %fp@(-1)
    8fb4:	2f04           	movel %d4,%sp@-
    8fb6:	4eb9 0000 b428 	jsr b428 <_wcrtomb_r>
    8fbc:	4fef 0010      	lea %sp@(16),%sp
    8fc0:	72ff           	moveq #-1,%d1
    8fc2:	b280           	cmpl %d0,%d1
    8fc4:	672e           	beqs 8ff4 <__fputwc+0xac>
    8fc6:	4a80           	tstl %d0
    8fc8:	66ac           	bnes 8f76 <__fputwc+0x2e>
    8fca:	2003           	movel %d3,%d0
    8fcc:	60d2           	bras 8fa0 <__fputwc+0x58>
    8fce:	2f0a           	movel %a2,%sp@-
    8fd0:	0282 0000 00ff 	andil #255,%d2
    8fd6:	2f02           	movel %d2,%sp@-
    8fd8:	2f04           	movel %d4,%sp@-
    8fda:	4eb9 0000 8778 	jsr 8778 <__swbuf_r>
    8fe0:	4fef 000c      	lea %sp@(12),%sp
    8fe4:	5280           	addql #1,%d0
    8fe6:	66b6           	bnes 8f9e <__fputwc+0x56>
    8fe8:	70ff           	moveq #-1,%d0
    8fea:	4cee 041c ffec 	moveml %fp@(-20),%d2-%d4/%a2
    8ff0:	4e5e           	unlk %fp
    8ff2:	4e75           	rts
    8ff4:	006a 0040 000c 	oriw #64,%a2@(12)
    8ffa:	70ff           	moveq #-1,%d0
    8ffc:	60ec           	bras 8fea <__fputwc+0xa2>

00008ffe <_fputwc_r>:
    8ffe:	222f 0004      	movel %sp@(4),%d1
    9002:	226f 0008      	moveal %sp@(8),%a1
    9006:	206f 000c      	moveal %sp@(12),%a0
    900a:	3028 000c      	movew %a0@(12),%d0
    900e:	0800 000d      	btst #13,%d0
    9012:	660e           	bnes 9022 <_fputwc_r+0x24>
    9014:	0040 2000      	oriw #8192,%d0
    9018:	3140 000c      	movew %d0,%a0@(12)
    901c:	0068 2000 0066 	oriw #8192,%a0@(102)
    9022:	2f48 000c      	movel %a0,%sp@(12)
    9026:	2f49 0008      	movel %a1,%sp@(8)
    902a:	2f41 0004      	movel %d1,%sp@(4)
    902e:	6000 ff18      	braw 8f48 <__fputwc>

00009032 <fputwc>:
    9032:	2f0b           	movel %a3,%sp@-
    9034:	2f0a           	movel %a2,%sp@-
    9036:	246f 0010      	moveal %sp@(16),%a2
    903a:	2679 0000 ba28 	moveal ba28 <_impure_ptr>,%a3
    9040:	b6fc 0000      	cmpaw #0,%a3
    9044:	6706           	beqs 904c <fputwc+0x1a>
    9046:	4aab 0036      	tstl %a3@(54)
    904a:	672e           	beqs 907a <fputwc+0x48>
    904c:	302a 000c      	movew %a2@(12),%d0
    9050:	0800 000d      	btst #13,%d0
    9054:	660e           	bnes 9064 <fputwc+0x32>
    9056:	0040 2000      	oriw #8192,%d0
    905a:	3540 000c      	movew %d0,%a2@(12)
    905e:	006a 2000 0066 	oriw #8192,%a2@(102)
    9064:	2f0a           	movel %a2,%sp@-
    9066:	2f2f 0010      	movel %sp@(16),%sp@-
    906a:	2f0b           	movel %a3,%sp@-
    906c:	4eba feda      	jsr %pc@(8f48 <__fputwc>)
    9070:	4fef 000c      	lea %sp@(12),%sp
    9074:	245f           	moveal %sp@+,%a2
    9076:	265f           	moveal %sp@+,%a3
    9078:	4e75           	rts
    907a:	2f0b           	movel %a3,%sp@-
    907c:	4eb9 0000 8f06 	jsr 8f06 <__sinit>
    9082:	588f           	addql #4,%sp
    9084:	60c6           	bras 904c <fputwc+0x1a>
	...

00009088 <_malloc_trim_r>:
    9088:	48e7 3820      	moveml %d2-%d4/%a2,%sp@-
    908c:	262f 0014      	movel %sp@(20),%d3
    9090:	2f03           	movel %d3,%sp@-
    9092:	4eb9 0000 a778 	jsr a778 <__malloc_lock>
    9098:	2079 0000 bfc8 	moveal bfc8 <__malloc_av_+0x8>,%a0
    909e:	78fc           	moveq #-4,%d4
    90a0:	c8a8 0004      	andl %a0@(4),%d4
    90a4:	2404           	movel %d4,%d2
    90a6:	0682 0000 0fef 	addil #4079,%d2
    90ac:	94af 001c      	subl %sp@(28),%d2
    90b0:	0242 f000      	andiw #-4096,%d2
    90b4:	0682 ffff f000 	addil #-4096,%d2
    90ba:	588f           	addql #4,%sp
    90bc:	0c82 0000 0fff 	cmpil #4095,%d2
    90c2:	6f1a           	bles 90de <_malloc_trim_r+0x56>
    90c4:	42a7           	clrl %sp@-
    90c6:	2f03           	movel %d3,%sp@-
    90c8:	45f9 0000 b270 	lea b270 <_sbrk_r>,%a2
    90ce:	4e92           	jsr %a2@
    90d0:	2239 0000 bfc8 	movel bfc8 <__malloc_av_+0x8>,%d1
    90d6:	d284           	addl %d4,%d1
    90d8:	508f           	addql #8,%sp
    90da:	b280           	cmpl %d0,%d1
    90dc:	6712           	beqs 90f0 <_malloc_trim_r+0x68>
    90de:	2f03           	movel %d3,%sp@-
    90e0:	4eb9 0000 a77a 	jsr a77a <__malloc_unlock>
    90e6:	588f           	addql #4,%sp
    90e8:	7000           	moveq #0,%d0
    90ea:	4cdf 041c      	moveml %sp@+,%d2-%d4/%a2
    90ee:	4e75           	rts
    90f0:	2002           	movel %d2,%d0
    90f2:	4480           	negl %d0
    90f4:	2f00           	movel %d0,%sp@-
    90f6:	2f03           	movel %d3,%sp@-
    90f8:	4e92           	jsr %a2@
    90fa:	508f           	addql #8,%sp
    90fc:	5280           	addql #1,%d0
    90fe:	6728           	beqs 9128 <_malloc_trim_r+0xa0>
    9100:	9882           	subl %d2,%d4
    9102:	2079 0000 bfc8 	moveal bfc8 <__malloc_av_+0x8>,%a0
    9108:	7201           	moveq #1,%d1
    910a:	8284           	orl %d4,%d1
    910c:	2141 0004      	movel %d1,%a0@(4)
    9110:	95b9 0000 c3cc 	subl %d2,c3cc <__malloc_current_mallinfo>
    9116:	2f03           	movel %d3,%sp@-
    9118:	4eb9 0000 a77a 	jsr a77a <__malloc_unlock>
    911e:	588f           	addql #4,%sp
    9120:	7001           	moveq #1,%d0
    9122:	4cdf 041c      	moveml %sp@+,%d2-%d4/%a2
    9126:	4e75           	rts
    9128:	42a7           	clrl %sp@-
    912a:	2f03           	movel %d3,%sp@-
    912c:	4e92           	jsr %a2@
    912e:	2079 0000 bfc8 	moveal bfc8 <__malloc_av_+0x8>,%a0
    9134:	2200           	movel %d0,%d1
    9136:	9288           	subl %a0,%d1
    9138:	508f           	addql #8,%sp
    913a:	740f           	moveq #15,%d2
    913c:	b481           	cmpl %d1,%d2
    913e:	6c9e           	bges 90de <_malloc_trim_r+0x56>
    9140:	90b9 0000 bfb8 	subl bfb8 <__malloc_sbrk_base>,%d0
    9146:	23c0 0000 c3cc 	movel %d0,c3cc <__malloc_current_mallinfo>
    914c:	7001           	moveq #1,%d0
    914e:	8081           	orl %d1,%d0
    9150:	2140 0004      	movel %d0,%a0@(4)
    9154:	2f03           	movel %d3,%sp@-
    9156:	4eb9 0000 a77a 	jsr a77a <__malloc_unlock>
    915c:	588f           	addql #4,%sp
    915e:	7000           	moveq #0,%d0
    9160:	6088           	bras 90ea <_malloc_trim_r+0x62>

00009162 <_free_r>:
    9162:	48e7 3030      	moveml %d2-%d3/%a2-%a3,%sp@-
    9166:	242f 0014      	movel %sp@(20),%d2
    916a:	246f 0018      	moveal %sp@(24),%a2
    916e:	b4fc 0000      	cmpaw #0,%a2
    9172:	6700 013a      	beqw 92ae <_free_r+0x14c>
    9176:	2f02           	movel %d2,%sp@-
    9178:	4eb9 0000 a778 	jsr a778 <__malloc_lock>
    917e:	41ea fff8      	lea %a2@(-8),%a0
    9182:	262a fffc      	movel %a2@(-4),%d3
    9186:	70fe           	moveq #-2,%d0
    9188:	c083           	andl %d3,%d0
    918a:	43f0 0800      	lea %a0@(0000000000000000,%d0:l),%a1
    918e:	72fc           	moveq #-4,%d1
    9190:	c2a9 0004      	andl %a1@(4),%d1
    9194:	588f           	addql #4,%sp
    9196:	b3f9 0000 bfc8 	cmpal bfc8 <__malloc_av_+0x8>,%a1
    919c:	6700 0174      	beqw 9312 <_free_r+0x1b0>
    91a0:	2341 0004      	movel %d1,%a1@(4)
    91a4:	47f1 1800      	lea %a1@(0000000000000000,%d1:l),%a3
    91a8:	0803 0000      	btst #0,%d3
    91ac:	667c           	bnes 922a <_free_r+0xc8>
    91ae:	262a fff8      	movel %a2@(-8),%d3
    91b2:	91c3           	subal %d3,%a0
    91b4:	d083           	addl %d3,%d0
    91b6:	2468 0008      	moveal %a0@(8),%a2
    91ba:	7601           	moveq #1,%d3
    91bc:	c6ab 0004      	andl %a3@(4),%d3
    91c0:	b5fc 0000 bfc8 	cmpal #49096,%a2
    91c6:	6700 0118      	beqw 92e0 <_free_r+0x17e>
    91ca:	2668 000c      	moveal %a0@(12),%a3
    91ce:	254b 000c      	movel %a3,%a2@(12)
    91d2:	274a 0008      	movel %a2,%a3@(8)
    91d6:	4a83           	tstl %d3
    91d8:	6700 00da      	beqw 92b4 <_free_r+0x152>
    91dc:	7201           	moveq #1,%d1
    91de:	8280           	orl %d0,%d1
    91e0:	2141 0004      	movel %d1,%a0@(4)
    91e4:	2280           	movel %d0,%a1@
    91e6:	0c80 0000 01ff 	cmpil #511,%d0
    91ec:	6258           	bhis 9246 <_free_r+0xe4>
    91ee:	e688           	lsrl #3,%d0
    91f0:	2600           	movel %d0,%d3
    91f2:	e483           	asrl #2,%d3
    91f4:	7201           	moveq #1,%d1
    91f6:	e7a9           	lsll %d3,%d1
    91f8:	83b9 0000 bfc4 	orl %d1,bfc4 <__malloc_av_+0x4>
    91fe:	e788           	lsll #3,%d0
    9200:	2240           	moveal %d0,%a1
    9202:	d3fc 0000 bfc8 	addal #49096,%a1
    9208:	2451           	moveal %a1@,%a2
    920a:	47e9 fff8      	lea %a1@(-8),%a3
    920e:	214b 000c      	movel %a3,%a0@(12)
    9212:	214a 0008      	movel %a2,%a0@(8)
    9216:	2288           	movel %a0,%a1@
    9218:	2548 000c      	movel %a0,%a2@(12)
    921c:	2f42 0014      	movel %d2,%sp@(20)
    9220:	4cdf 0c0c      	moveml %sp@+,%d2-%d3/%a2-%a3
    9224:	4ef9 0000 a77a 	jmp a77a <__malloc_unlock>
    922a:	082b 0000 0007 	btst #0,%a3@(7)
    9230:	6700 0082      	beqw 92b4 <_free_r+0x152>
    9234:	7601           	moveq #1,%d3
    9236:	8680           	orl %d0,%d3
    9238:	2543 fffc      	movel %d3,%a2@(-4)
    923c:	2280           	movel %d0,%a1@
    923e:	0c80 0000 01ff 	cmpil #511,%d0
    9244:	63a8           	blss 91ee <_free_r+0x8c>
    9246:	2200           	movel %d0,%d1
    9248:	7609           	moveq #9,%d3
    924a:	e6a9           	lsrl %d3,%d1
    924c:	7604           	moveq #4,%d3
    924e:	b681           	cmpl %d1,%d3
    9250:	6500 0114      	bcsw 9366 <_free_r+0x204>
    9254:	2200           	movel %d0,%d1
    9256:	ec89           	lsrl #6,%d1
    9258:	2241           	moveal %d1,%a1
    925a:	45e9 0038      	lea %a1@(56),%a2
    925e:	43e9 0039      	lea %a1@(57),%a1
    9262:	2209           	movel %a1,%d1
    9264:	e789           	lsll #3,%d1
    9266:	2241           	moveal %d1,%a1
    9268:	d3fc 0000 bfc0 	addal #49088,%a1
    926e:	47e9 fff8      	lea %a1@(-8),%a3
    9272:	2251           	moveal %a1@,%a1
    9274:	b3cb           	cmpal %a3,%a1
    9276:	6700 0124      	beqw 939c <_free_r+0x23a>
    927a:	72fc           	moveq #-4,%d1
    927c:	c2a9 0004      	andl %a1@(4),%d1
    9280:	b081           	cmpl %d1,%d0
    9282:	6408           	bccs 928c <_free_r+0x12a>
    9284:	2269 0008      	moveal %a1@(8),%a1
    9288:	b3cb           	cmpal %a3,%a1
    928a:	66ee           	bnes 927a <_free_r+0x118>
    928c:	2669 000c      	moveal %a1@(12),%a3
    9290:	214b 000c      	movel %a3,%a0@(12)
    9294:	2149 0008      	movel %a1,%a0@(8)
    9298:	2748 0008      	movel %a0,%a3@(8)
    929c:	2348 000c      	movel %a0,%a1@(12)
    92a0:	2f42 0014      	movel %d2,%sp@(20)
    92a4:	4cdf 0c0c      	moveml %sp@+,%d2-%d3/%a2-%a3
    92a8:	4ef9 0000 a77a 	jmp a77a <__malloc_unlock>
    92ae:	4cdf 0c0c      	moveml %sp@+,%d2-%d3/%a2-%a3
    92b2:	4e75           	rts
    92b4:	d081           	addl %d1,%d0
    92b6:	2469 0008      	moveal %a1@(8),%a2
    92ba:	b5fc 0000 bfc8 	cmpal #49096,%a2
    92c0:	6700 011e      	beqw 93e0 <_free_r+0x27e>
    92c4:	2269 000c      	moveal %a1@(12),%a1
    92c8:	2549 000c      	movel %a1,%a2@(12)
    92cc:	234a 0008      	movel %a2,%a1@(8)
    92d0:	7201           	moveq #1,%d1
    92d2:	8280           	orl %d0,%d1
    92d4:	2141 0004      	movel %d1,%a0@(4)
    92d8:	2180 0800      	movel %d0,%a0@(0000000000000000,%d0:l)
    92dc:	6000 ff08      	braw 91e6 <_free_r+0x84>
    92e0:	4a83           	tstl %d3
    92e2:	6600 01b6      	bnew 949a <_free_r+0x338>
    92e6:	d280           	addl %d0,%d1
    92e8:	2469 0008      	moveal %a1@(8),%a2
    92ec:	2269 000c      	moveal %a1@(12),%a1
    92f0:	2549 000c      	movel %a1,%a2@(12)
    92f4:	234a 0008      	movel %a2,%a1@(8)
    92f8:	7601           	moveq #1,%d3
    92fa:	8681           	orl %d1,%d3
    92fc:	2143 0004      	movel %d3,%a0@(4)
    9300:	2181 1800      	movel %d1,%a0@(0000000000000000,%d1:l)
    9304:	2f42 0014      	movel %d2,%sp@(20)
    9308:	4cdf 0c0c      	moveml %sp@+,%d2-%d3/%a2-%a3
    930c:	4ef9 0000 a77a 	jmp a77a <__malloc_unlock>
    9312:	d280           	addl %d0,%d1
    9314:	0803 0000      	btst #0,%d3
    9318:	6618           	bnes 9332 <_free_r+0x1d0>
    931a:	202a fff8      	movel %a2@(-8),%d0
    931e:	91c0           	subal %d0,%a0
    9320:	d280           	addl %d0,%d1
    9322:	2268 000c      	moveal %a0@(12),%a1
    9326:	2468 0008      	moveal %a0@(8),%a2
    932a:	2549 000c      	movel %a1,%a2@(12)
    932e:	234a 0008      	movel %a2,%a1@(8)
    9332:	7001           	moveq #1,%d0
    9334:	8081           	orl %d1,%d0
    9336:	2140 0004      	movel %d0,%a0@(4)
    933a:	23c8 0000 bfc8 	movel %a0,bfc8 <__malloc_av_+0x8>
    9340:	b2b9 0000 bfbc 	cmpl bfbc <__malloc_trim_threshold>,%d1
    9346:	6500 fed4      	bcsw 921c <_free_r+0xba>
    934a:	2f39 0000 c3fc 	movel c3fc <__malloc_top_pad>,%sp@-
    9350:	2f02           	movel %d2,%sp@-
    9352:	4eba fd34      	jsr %pc@(9088 <_malloc_trim_r>)
    9356:	508f           	addql #8,%sp
    9358:	2f42 0014      	movel %d2,%sp@(20)
    935c:	4cdf 0c0c      	moveml %sp@+,%d2-%d3/%a2-%a3
    9360:	4ef9 0000 a77a 	jmp a77a <__malloc_unlock>
    9366:	7614           	moveq #20,%d3
    9368:	b681           	cmpl %d1,%d3
    936a:	6452           	bccs 93be <_free_r+0x25c>
    936c:	7654           	moveq #84,%d3
    936e:	b681           	cmpl %d1,%d3
    9370:	6500 009c      	bcsw 940e <_free_r+0x2ac>
    9374:	2200           	movel %d0,%d1
    9376:	760c           	moveq #12,%d3
    9378:	e6a9           	lsrl %d3,%d1
    937a:	2241           	moveal %d1,%a1
    937c:	45e9 006e      	lea %a1@(110),%a2
    9380:	43e9 006f      	lea %a1@(111),%a1
    9384:	2209           	movel %a1,%d1
    9386:	e789           	lsll #3,%d1
    9388:	2241           	moveal %d1,%a1
    938a:	d3fc 0000 bfc0 	addal #49088,%a1
    9390:	47e9 fff8      	lea %a1@(-8),%a3
    9394:	2251           	moveal %a1@,%a1
    9396:	b3cb           	cmpal %a3,%a1
    9398:	6600 fee0      	bnew 927a <_free_r+0x118>
    939c:	200a           	movel %a2,%d0
    939e:	e480           	asrl #2,%d0
    93a0:	7201           	moveq #1,%d1
    93a2:	e1a9           	lsll %d0,%d1
    93a4:	83b9 0000 bfc4 	orl %d1,bfc4 <__malloc_av_+0x4>
    93aa:	214b 000c      	movel %a3,%a0@(12)
    93ae:	2149 0008      	movel %a1,%a0@(8)
    93b2:	2748 0008      	movel %a0,%a3@(8)
    93b6:	2348 000c      	movel %a0,%a1@(12)
    93ba:	6000 fee4      	braw 92a0 <_free_r+0x13e>
    93be:	347c 005b      	moveaw #91,%a2
    93c2:	d5c1           	addal %d1,%a2
    93c4:	765c           	moveq #92,%d3
    93c6:	d283           	addl %d3,%d1
    93c8:	e789           	lsll #3,%d1
    93ca:	2241           	moveal %d1,%a1
    93cc:	d3fc 0000 bfc0 	addal #49088,%a1
    93d2:	47e9 fff8      	lea %a1@(-8),%a3
    93d6:	2251           	moveal %a1@,%a1
    93d8:	b3cb           	cmpal %a3,%a1
    93da:	6600 fe9e      	bnew 927a <_free_r+0x118>
    93de:	60bc           	bras 939c <_free_r+0x23a>
    93e0:	23c8 0000 bfd4 	movel %a0,bfd4 <__malloc_av_+0x14>
    93e6:	23c8 0000 bfd0 	movel %a0,bfd0 <__malloc_av_+0x10>
    93ec:	214a 000c      	movel %a2,%a0@(12)
    93f0:	214a 0008      	movel %a2,%a0@(8)
    93f4:	7601           	moveq #1,%d3
    93f6:	8680           	orl %d0,%d3
    93f8:	2143 0004      	movel %d3,%a0@(4)
    93fc:	2180 0800      	movel %d0,%a0@(0000000000000000,%d0:l)
    9400:	2f42 0014      	movel %d2,%sp@(20)
    9404:	4cdf 0c0c      	moveml %sp@+,%d2-%d3/%a2-%a3
    9408:	4ef9 0000 a77a 	jmp a77a <__malloc_unlock>
    940e:	0c81 0000 0154 	cmpil #340,%d1
    9414:	622c           	bhis 9442 <_free_r+0x2e0>
    9416:	2200           	movel %d0,%d1
    9418:	760f           	moveq #15,%d3
    941a:	e6a9           	lsrl %d3,%d1
    941c:	2241           	moveal %d1,%a1
    941e:	45e9 0077      	lea %a1@(119),%a2
    9422:	43e9 0078      	lea %a1@(120),%a1
    9426:	2209           	movel %a1,%d1
    9428:	e789           	lsll #3,%d1
    942a:	2241           	moveal %d1,%a1
    942c:	d3fc 0000 bfc0 	addal #49088,%a1
    9432:	47e9 fff8      	lea %a1@(-8),%a3
    9436:	2251           	moveal %a1@,%a1
    9438:	b3cb           	cmpal %a3,%a1
    943a:	6600 fe3e      	bnew 927a <_free_r+0x118>
    943e:	6000 ff5c      	braw 939c <_free_r+0x23a>
    9442:	0c81 0000 0554 	cmpil #1364,%d1
    9448:	622e           	bhis 9478 <_free_r+0x316>
    944a:	2200           	movel %d0,%d1
    944c:	4241           	clrw %d1
    944e:	4841           	swap %d1
    9450:	e449           	lsrw #2,%d1
    9452:	2241           	moveal %d1,%a1
    9454:	45e9 007c      	lea %a1@(124),%a2
    9458:	43e9 007d      	lea %a1@(125),%a1
    945c:	2209           	movel %a1,%d1
    945e:	e789           	lsll #3,%d1
    9460:	2241           	moveal %d1,%a1
    9462:	d3fc 0000 bfc0 	addal #49088,%a1
    9468:	47e9 fff8      	lea %a1@(-8),%a3
    946c:	2251           	moveal %a1@,%a1
    946e:	b3cb           	cmpal %a3,%a1
    9470:	6600 fe08      	bnew 927a <_free_r+0x118>
    9474:	6000 ff26      	braw 939c <_free_r+0x23a>
    9478:	223c 0000 03f8 	movel #1016,%d1
    947e:	347c 007e      	moveaw #126,%a2
    9482:	2241           	moveal %d1,%a1
    9484:	d3fc 0000 bfc0 	addal #49088,%a1
    948a:	47e9 fff8      	lea %a1@(-8),%a3
    948e:	2251           	moveal %a1@,%a1
    9490:	b3cb           	cmpal %a3,%a1
    9492:	6600 fde6      	bnew 927a <_free_r+0x118>
    9496:	6000 ff04      	braw 939c <_free_r+0x23a>
    949a:	7201           	moveq #1,%d1
    949c:	8280           	orl %d0,%d1
    949e:	2141 0004      	movel %d1,%a0@(4)
    94a2:	2280           	movel %d0,%a1@
    94a4:	2f42 0014      	movel %d2,%sp@(20)
    94a8:	4cdf 0c0c      	moveml %sp@+,%d2-%d3/%a2-%a3
    94ac:	4ef9 0000 a77a 	jmp a77a <__malloc_unlock>
	...

000094b4 <__sfvwrite_r>:
    94b4:	48e7 3f3e      	moveml %d2-%d7/%a2-%fp,%sp@-
    94b8:	2c6f 0030      	moveal %sp@(48),%fp
    94bc:	246f 0034      	moveal %sp@(52),%a2
    94c0:	2a6f 0038      	moveal %sp@(56),%a5
    94c4:	4aad 0008      	tstl %a5@(8)
    94c8:	6700 00fa      	beqw 95c4 <__sfvwrite_r+0x110>
    94cc:	302a 000c      	movew %a2@(12),%d0
    94d0:	0800 0003      	btst #3,%d0
    94d4:	6700 00f6      	beqw 95cc <__sfvwrite_r+0x118>
    94d8:	4aaa 0010      	tstl %a2@(16)
    94dc:	6700 00ee      	beqw 95cc <__sfvwrite_r+0x118>
    94e0:	2655           	moveal %a5@,%a3
    94e2:	0800 0001      	btst #1,%d0
    94e6:	675e           	beqs 9546 <__sfvwrite_r+0x92>
    94e8:	7600           	moveq #0,%d3
    94ea:	7400           	moveq #0,%d2
    94ec:	226a 0024      	moveal %a2@(36),%a1
    94f0:	206a 001c      	moveal %a2@(28),%a0
    94f4:	283c 7fff fc00 	movel #2147482624,%d4
    94fa:	4a82           	tstl %d2
    94fc:	673e           	beqs 953c <__sfvwrite_r+0x88>
    94fe:	2202           	movel %d2,%d1
    9500:	0c82 7fff fc00 	cmpil #2147482624,%d2
    9506:	6302           	blss 950a <__sfvwrite_r+0x56>
    9508:	2204           	movel %d4,%d1
    950a:	2f01           	movel %d1,%sp@-
    950c:	2f03           	movel %d3,%sp@-
    950e:	2f08           	movel %a0,%sp@-
    9510:	2f0e           	movel %fp,%sp@-
    9512:	4e91           	jsr %a1@
    9514:	4fef 0010      	lea %sp@(16),%sp
    9518:	4a80           	tstl %d0
    951a:	6f00 00d4      	blew 95f0 <__sfvwrite_r+0x13c>
    951e:	d680           	addl %d0,%d3
    9520:	9480           	subl %d0,%d2
    9522:	222d 0008      	movel %a5@(8),%d1
    9526:	9280           	subl %d0,%d1
    9528:	2b41 0008      	movel %d1,%a5@(8)
    952c:	6700 0096      	beqw 95c4 <__sfvwrite_r+0x110>
    9530:	226a 0024      	moveal %a2@(36),%a1
    9534:	206a 001c      	moveal %a2@(28),%a0
    9538:	4a82           	tstl %d2
    953a:	66c2           	bnes 94fe <__sfvwrite_r+0x4a>
    953c:	2613           	movel %a3@,%d3
    953e:	242b 0004      	movel %a3@(4),%d2
    9542:	508b           	addql #8,%a3
    9544:	60b4           	bras 94fa <__sfvwrite_r+0x46>
    9546:	7600           	moveq #0,%d3
    9548:	0800 0000      	btst #0,%d0
    954c:	6700 0108      	beqw 9656 <__sfvwrite_r+0x1a2>
    9550:	7000           	moveq #0,%d0
    9552:	7800           	moveq #0,%d4
    9554:	7e00           	moveq #0,%d7
    9556:	2a3c 0000 a59c 	movel #42396,%d5
    955c:	49f9 0000 8b86 	lea 8b86 <_fflush_r>,%a4
    9562:	4a87           	tstl %d7
    9564:	6700 009e      	beqw 9604 <__sfvwrite_r+0x150>
    9568:	4a80           	tstl %d0
    956a:	6700 00a4      	beqw 9610 <__sfvwrite_r+0x15c>
    956e:	2003           	movel %d3,%d0
    9570:	2c07           	movel %d7,%d6
    9572:	b087           	cmpl %d7,%d0
    9574:	6402           	bccs 9578 <__sfvwrite_r+0xc4>
    9576:	2c00           	movel %d0,%d6
    9578:	242a 0008      	movel %a2@(8),%d2
    957c:	202a 0014      	movel %a2@(20),%d0
    9580:	2212           	movel %a2@,%d1
    9582:	b2aa 0010      	cmpl %a2@(16),%d1
    9586:	6308           	blss 9590 <__sfvwrite_r+0xdc>
    9588:	d480           	addl %d0,%d2
    958a:	b486           	cmpl %d6,%d2
    958c:	6d00 00a6      	bltw 9634 <__sfvwrite_r+0x180>
    9590:	bc80           	cmpl %d0,%d6
    9592:	6d00 0262      	bltw 97f6 <__sfvwrite_r+0x342>
    9596:	2f00           	movel %d0,%sp@-
    9598:	2f04           	movel %d4,%sp@-
    959a:	2f2a 001c      	movel %a2@(28),%sp@-
    959e:	2f0e           	movel %fp,%sp@-
    95a0:	206a 0024      	moveal %a2@(36),%a0
    95a4:	4e90           	jsr %a0@
    95a6:	2400           	movel %d0,%d2
    95a8:	4fef 0010      	lea %sp@(16),%sp
    95ac:	6f42           	bles 95f0 <__sfvwrite_r+0x13c>
    95ae:	9682           	subl %d2,%d3
    95b0:	6732           	beqs 95e4 <__sfvwrite_r+0x130>
    95b2:	7001           	moveq #1,%d0
    95b4:	d882           	addl %d2,%d4
    95b6:	9e82           	subl %d2,%d7
    95b8:	222d 0008      	movel %a5@(8),%d1
    95bc:	9282           	subl %d2,%d1
    95be:	2b41 0008      	movel %d1,%a5@(8)
    95c2:	669e           	bnes 9562 <__sfvwrite_r+0xae>
    95c4:	7000           	moveq #0,%d0
    95c6:	4cdf 7cfc      	moveml %sp@+,%d2-%d7/%a2-%fp
    95ca:	4e75           	rts
    95cc:	2f0a           	movel %a2,%sp@-
    95ce:	2f0e           	movel %fp,%sp@-
    95d0:	4eb9 0000 88a4 	jsr 88a4 <__swsetup_r>
    95d6:	508f           	addql #8,%sp
    95d8:	4a80           	tstl %d0
    95da:	6620           	bnes 95fc <__sfvwrite_r+0x148>
    95dc:	302a 000c      	movew %a2@(12),%d0
    95e0:	6000 fefe      	braw 94e0 <__sfvwrite_r+0x2c>
    95e4:	2f0a           	movel %a2,%sp@-
    95e6:	2f0e           	movel %fp,%sp@-
    95e8:	4e94           	jsr %a4@
    95ea:	508f           	addql #8,%sp
    95ec:	4a80           	tstl %d0
    95ee:	67c4           	beqs 95b4 <__sfvwrite_r+0x100>
    95f0:	302a 000c      	movew %a2@(12),%d0
    95f4:	0040 0040      	oriw #64,%d0
    95f8:	3540 000c      	movew %d0,%a2@(12)
    95fc:	70ff           	moveq #-1,%d0
    95fe:	4cdf 7cfc      	moveml %sp@+,%d2-%d7/%a2-%fp
    9602:	4e75           	rts
    9604:	2e2b 0004      	movel %a3@(4),%d7
    9608:	204b           	moveal %a3,%a0
    960a:	508b           	addql #8,%a3
    960c:	67f6           	beqs 9604 <__sfvwrite_r+0x150>
    960e:	2810           	movel %a0@,%d4
    9610:	2f07           	movel %d7,%sp@-
    9612:	4878 000a      	pea a <_start-0x7ff6>
    9616:	2f04           	movel %d4,%sp@-
    9618:	4eb9 0000 a42c 	jsr a42c <memchr>
    961e:	4fef 000c      	lea %sp@(12),%sp
    9622:	4a80           	tstl %d0
    9624:	6700 0226      	beqw 984c <__sfvwrite_r+0x398>
    9628:	5280           	addql #1,%d0
    962a:	2600           	movel %d0,%d3
    962c:	9684           	subl %d4,%d3
    962e:	2003           	movel %d3,%d0
    9630:	6000 ff3e      	braw 9570 <__sfvwrite_r+0xbc>
    9634:	2f02           	movel %d2,%sp@-
    9636:	2f04           	movel %d4,%sp@-
    9638:	2f01           	movel %d1,%sp@-
    963a:	2045           	moveal %d5,%a0
    963c:	4e90           	jsr %a0@
    963e:	d592           	addl %d2,%a2@
    9640:	2f0a           	movel %a2,%sp@-
    9642:	2f0e           	movel %fp,%sp@-
    9644:	4e94           	jsr %a4@
    9646:	4fef 0014      	lea %sp@(20),%sp
    964a:	4a80           	tstl %d0
    964c:	6700 ff60      	beqw 95ae <__sfvwrite_r+0xfa>
    9650:	302a 000c      	movew %a2@(12),%d0
    9654:	609e           	bras 95f4 <__sfvwrite_r+0x140>
    9656:	99cc           	subal %a4,%a4
    9658:	2212           	movel %a2@,%d1
    965a:	242a 0008      	movel %a2@(8),%d2
    965e:	283c 0000 a59c 	movel #42396,%d4
    9664:	2a3c 0000 b890 	movel #47248,%d5
    966a:	2041           	moveal %d1,%a0
    966c:	2c02           	movel %d2,%d6
    966e:	b8fc 0000      	cmpaw #0,%a4
    9672:	6700 00d2      	beqw 9746 <__sfvwrite_r+0x292>
    9676:	0800 0009      	btst #9,%d0
    967a:	6700 00d6      	beqw 9752 <__sfvwrite_r+0x29e>
    967e:	b9c2           	cmpal %d2,%a4
    9680:	6500 0154      	bcsw 97d6 <__sfvwrite_r+0x322>
    9684:	3e00           	movew %d0,%d7
    9686:	0247 0480      	andiw #1152,%d7
    968a:	677c           	beqs 9708 <__sfvwrite_r+0x254>
    968c:	206a 0010      	moveal %a2@(16),%a0
    9690:	2401           	movel %d1,%d2
    9692:	9488           	subl %a0,%d2
    9694:	222a 0014      	movel %a2@(20),%d1
    9698:	2e01           	movel %d1,%d7
    969a:	de81           	addl %d1,%d7
    969c:	de81           	addl %d1,%d7
    969e:	2e07           	movel %d7,%d7
    96a0:	6a02           	bpls 96a4 <__sfvwrite_r+0x1f0>
    96a2:	5287           	addql #1,%d7
    96a4:	e287           	asrl #1,%d7
    96a6:	43f4 2801      	lea %a4@(0000000000000001,%d2:l),%a1
    96aa:	2207           	movel %d7,%d1
    96ac:	be89           	cmpl %a1,%d7
    96ae:	6404           	bccs 96b4 <__sfvwrite_r+0x200>
    96b0:	2e09           	movel %a1,%d7
    96b2:	2209           	movel %a1,%d1
    96b4:	0800 000a      	btst #10,%d0
    96b8:	6700 0156      	beqw 9810 <__sfvwrite_r+0x35c>
    96bc:	2f01           	movel %d1,%sp@-
    96be:	2f0e           	movel %fp,%sp@-
    96c0:	4eb9 0000 9ba4 	jsr 9ba4 <_malloc_r>
    96c6:	2c00           	movel %d0,%d6
    96c8:	508f           	addql #8,%sp
    96ca:	6700 018a      	beqw 9856 <__sfvwrite_r+0x3a2>
    96ce:	2f02           	movel %d2,%sp@-
    96d0:	2f2a 0010      	movel %a2@(16),%sp@-
    96d4:	2f00           	movel %d0,%sp@-
    96d6:	4eb9 0000 a4cc 	jsr a4cc <memcpy>
    96dc:	302a 000c      	movew %a2@(12),%d0
    96e0:	0240 fb7f      	andiw #-1153,%d0
    96e4:	0040 0080      	oriw #128,%d0
    96e8:	3540 000c      	movew %d0,%a2@(12)
    96ec:	4fef 000c      	lea %sp@(12),%sp
    96f0:	2546 0010      	movel %d6,%a2@(16)
    96f4:	2046           	moveal %d6,%a0
    96f6:	d1c2           	addal %d2,%a0
    96f8:	2488           	movel %a0,%a2@
    96fa:	2547 0014      	movel %d7,%a2@(20)
    96fe:	2c0c           	movel %a4,%d6
    9700:	9e82           	subl %d2,%d7
    9702:	2547 0008      	movel %d7,%a2@(8)
    9706:	240c           	movel %a4,%d2
    9708:	2f02           	movel %d2,%sp@-
    970a:	2f03           	movel %d3,%sp@-
    970c:	2f08           	movel %a0,%sp@-
    970e:	2044           	moveal %d4,%a0
    9710:	4e90           	jsr %a0@
    9712:	9daa 0008      	subl %d6,%a2@(8)
    9716:	d592           	addl %d2,%a2@
    9718:	4fef 000c      	lea %sp@(12),%sp
    971c:	240c           	movel %a4,%d2
    971e:	99cc           	subal %a4,%a4
    9720:	d682           	addl %d2,%d3
    9722:	202d 0008      	movel %a5@(8),%d0
    9726:	9082           	subl %d2,%d0
    9728:	2b40 0008      	movel %d0,%a5@(8)
    972c:	6700 fe96      	beqw 95c4 <__sfvwrite_r+0x110>
    9730:	302a 000c      	movew %a2@(12),%d0
    9734:	2212           	movel %a2@,%d1
    9736:	242a 0008      	movel %a2@(8),%d2
    973a:	2041           	moveal %d1,%a0
    973c:	2c02           	movel %d2,%d6
    973e:	b8fc 0000      	cmpaw #0,%a4
    9742:	6600 ff32      	bnew 9676 <__sfvwrite_r+0x1c2>
    9746:	2613           	movel %a3@,%d3
    9748:	286b 0004      	moveal %a3@(4),%a4
    974c:	508b           	addql #8,%a3
    974e:	6000 ff1a      	braw 966a <__sfvwrite_r+0x1b6>
    9752:	b2aa 0010      	cmpl %a2@(16),%d1
    9756:	6242           	bhis 979a <__sfvwrite_r+0x2e6>
    9758:	202a 0014      	movel %a2@(20),%d0
    975c:	b9c0           	cmpal %d0,%a4
    975e:	653a           	bcss 979a <__sfvwrite_r+0x2e6>
    9760:	240c           	movel %a4,%d2
    9762:	b9fc 7fff ffff 	cmpal #2147483647,%a4
    9768:	6306           	blss 9770 <__sfvwrite_r+0x2bc>
    976a:	243c 7fff ffff 	movel #2147483647,%d2
    9770:	2f00           	movel %d0,%sp@-
    9772:	2f02           	movel %d2,%sp@-
    9774:	2045           	moveal %d5,%a0
    9776:	4e90           	jsr %a0@
    9778:	508f           	addql #8,%sp
    977a:	9480           	subl %d0,%d2
    977c:	2f02           	movel %d2,%sp@-
    977e:	2f03           	movel %d3,%sp@-
    9780:	2f2a 001c      	movel %a2@(28),%sp@-
    9784:	2f0e           	movel %fp,%sp@-
    9786:	206a 0024      	moveal %a2@(36),%a0
    978a:	4e90           	jsr %a0@
    978c:	2400           	movel %d0,%d2
    978e:	4fef 0010      	lea %sp@(16),%sp
    9792:	6f00 fe5c      	blew 95f0 <__sfvwrite_r+0x13c>
    9796:	99c2           	subal %d2,%a4
    9798:	6086           	bras 9720 <__sfvwrite_r+0x26c>
    979a:	b9c2           	cmpal %d2,%a4
    979c:	6402           	bccs 97a0 <__sfvwrite_r+0x2ec>
    979e:	240c           	movel %a4,%d2
    97a0:	2f02           	movel %d2,%sp@-
    97a2:	2f03           	movel %d3,%sp@-
    97a4:	2f01           	movel %d1,%sp@-
    97a6:	2044           	moveal %d4,%a0
    97a8:	4e90           	jsr %a0@
    97aa:	202a 0008      	movel %a2@(8),%d0
    97ae:	9082           	subl %d2,%d0
    97b0:	2540 0008      	movel %d0,%a2@(8)
    97b4:	d592           	addl %d2,%a2@
    97b6:	4fef 000c      	lea %sp@(12),%sp
    97ba:	4a80           	tstl %d0
    97bc:	66d8           	bnes 9796 <__sfvwrite_r+0x2e2>
    97be:	2f0a           	movel %a2,%sp@-
    97c0:	2f0e           	movel %fp,%sp@-
    97c2:	4eb9 0000 8b86 	jsr 8b86 <_fflush_r>
    97c8:	508f           	addql #8,%sp
    97ca:	4a80           	tstl %d0
    97cc:	6600 fe22      	bnew 95f0 <__sfvwrite_r+0x13c>
    97d0:	99c2           	subal %d2,%a4
    97d2:	6000 ff4c      	braw 9720 <__sfvwrite_r+0x26c>
    97d6:	2c0c           	movel %a4,%d6
    97d8:	240c           	movel %a4,%d2
    97da:	2f02           	movel %d2,%sp@-
    97dc:	2f03           	movel %d3,%sp@-
    97de:	2f08           	movel %a0,%sp@-
    97e0:	2044           	moveal %d4,%a0
    97e2:	4e90           	jsr %a0@
    97e4:	9daa 0008      	subl %d6,%a2@(8)
    97e8:	d592           	addl %d2,%a2@
    97ea:	4fef 000c      	lea %sp@(12),%sp
    97ee:	240c           	movel %a4,%d2
    97f0:	99cc           	subal %a4,%a4
    97f2:	6000 ff2c      	braw 9720 <__sfvwrite_r+0x26c>
    97f6:	2f06           	movel %d6,%sp@-
    97f8:	2f04           	movel %d4,%sp@-
    97fa:	2f01           	movel %d1,%sp@-
    97fc:	2045           	moveal %d5,%a0
    97fe:	4e90           	jsr %a0@
    9800:	9daa 0008      	subl %d6,%a2@(8)
    9804:	dd92           	addl %d6,%a2@
    9806:	4fef 000c      	lea %sp@(12),%sp
    980a:	2406           	movel %d6,%d2
    980c:	6000 fda0      	braw 95ae <__sfvwrite_r+0xfa>
    9810:	2f01           	movel %d1,%sp@-
    9812:	2f08           	movel %a0,%sp@-
    9814:	2f0e           	movel %fp,%sp@-
    9816:	4eb9 0000 ac84 	jsr ac84 <_realloc_r>
    981c:	2c00           	movel %d0,%d6
    981e:	4fef 000c      	lea %sp@(12),%sp
    9822:	6600 fecc      	bnew 96f0 <__sfvwrite_r+0x23c>
    9826:	2f2a 0010      	movel %a2@(16),%sp@-
    982a:	2f0e           	movel %fp,%sp@-
    982c:	4eb9 0000 9162 	jsr 9162 <_free_r>
    9832:	302a 000c      	movew %a2@(12),%d0
    9836:	0240 ff7f      	andiw #-129,%d0
    983a:	720c           	moveq #12,%d1
    983c:	2c81           	movel %d1,%fp@
    983e:	508f           	addql #8,%sp
    9840:	0040 0040      	oriw #64,%d0
    9844:	3540 000c      	movew %d0,%a2@(12)
    9848:	6000 fdb2      	braw 95fc <__sfvwrite_r+0x148>
    984c:	2007           	movel %d7,%d0
    984e:	5280           	addql #1,%d0
    9850:	2600           	movel %d0,%d3
    9852:	6000 fd1c      	braw 9570 <__sfvwrite_r+0xbc>
    9856:	700c           	moveq #12,%d0
    9858:	2c80           	movel %d0,%fp@
    985a:	302a 000c      	movew %a2@(12),%d0
    985e:	0040 0040      	oriw #64,%d0
    9862:	3540 000c      	movew %d0,%a2@(12)
    9866:	6000 fd94      	braw 95fc <__sfvwrite_r+0x148>
	...

0000986c <_fwalk>:
    986c:	48e7 3038      	moveml %d2-%d3/%a2-%a4,%sp@-
    9870:	286f 001c      	moveal %sp@(28),%a4
    9874:	266f 0018      	moveal %sp@(24),%a3
    9878:	47eb 02de      	lea %a3@(734),%a3
    987c:	7600           	moveq #0,%d3
    987e:	246b 0008      	moveal %a3@(8),%a2
    9882:	242b 0004      	movel %a3@(4),%d2
    9886:	5382           	subql #1,%d2
    9888:	6b26           	bmis 98b0 <_fwalk+0x44>
    988a:	0c6a 0001 000c 	cmpiw #1,%a2@(12)
    9890:	6310           	blss 98a2 <_fwalk+0x36>
    9892:	0c6a ffff 000e 	cmpiw #-1,%a2@(14)
    9898:	6708           	beqs 98a2 <_fwalk+0x36>
    989a:	2f0a           	movel %a2,%sp@-
    989c:	4e94           	jsr %a4@
    989e:	8680           	orl %d0,%d3
    98a0:	588f           	addql #4,%sp
    98a2:	45ea 0068      	lea %a2@(104),%a2
    98a6:	51ca ffe2      	dbf %d2,988a <_fwalk+0x1e>
    98aa:	4242           	clrw %d2
    98ac:	5382           	subql #1,%d2
    98ae:	64da           	bccs 988a <_fwalk+0x1e>
    98b0:	2653           	moveal %a3@,%a3
    98b2:	b6fc 0000      	cmpaw #0,%a3
    98b6:	66c6           	bnes 987e <_fwalk+0x12>
    98b8:	2003           	movel %d3,%d0
    98ba:	4cdf 1c0c      	moveml %sp@+,%d2-%d3/%a2-%a4
    98be:	4e75           	rts

000098c0 <_fwalk_reent>:
    98c0:	48e7 3838      	moveml %d2-%d4/%a2-%a4,%sp@-
    98c4:	282f 001c      	movel %sp@(28),%d4
    98c8:	286f 0020      	moveal %sp@(32),%a4
    98cc:	2644           	moveal %d4,%a3
    98ce:	47eb 02de      	lea %a3@(734),%a3
    98d2:	7600           	moveq #0,%d3
    98d4:	246b 0008      	moveal %a3@(8),%a2
    98d8:	242b 0004      	movel %a3@(4),%d2
    98dc:	5382           	subql #1,%d2
    98de:	6b28           	bmis 9908 <_fwalk_reent+0x48>
    98e0:	0c6a 0001 000c 	cmpiw #1,%a2@(12)
    98e6:	6312           	blss 98fa <_fwalk_reent+0x3a>
    98e8:	0c6a ffff 000e 	cmpiw #-1,%a2@(14)
    98ee:	670a           	beqs 98fa <_fwalk_reent+0x3a>
    98f0:	2f0a           	movel %a2,%sp@-
    98f2:	2f04           	movel %d4,%sp@-
    98f4:	4e94           	jsr %a4@
    98f6:	8680           	orl %d0,%d3
    98f8:	508f           	addql #8,%sp
    98fa:	45ea 0068      	lea %a2@(104),%a2
    98fe:	51ca ffe0      	dbf %d2,98e0 <_fwalk_reent+0x20>
    9902:	4242           	clrw %d2
    9904:	5382           	subql #1,%d2
    9906:	64d8           	bccs 98e0 <_fwalk_reent+0x20>
    9908:	2653           	moveal %a3@,%a3
    990a:	b6fc 0000      	cmpaw #0,%a3
    990e:	66c4           	bnes 98d4 <_fwalk_reent+0x14>
    9910:	2003           	movel %d3,%d0
    9912:	4cdf 1c1c      	moveml %sp@+,%d2-%d4/%a2-%a4
    9916:	4e75           	rts

00009918 <_setlocale_r>:
    9918:	2f0a           	movel %a2,%sp@-
    991a:	2f02           	movel %d2,%sp@-
    991c:	242f 0014      	movel %sp@(20),%d2
    9920:	6716           	beqs 9938 <_setlocale_r+0x20>
    9922:	4879 0000 b9fe 	pea b9fe <_ctype_+0x114>
    9928:	2f02           	movel %d2,%sp@-
    992a:	45f9 0000 b3b0 	lea b3b0 <strcmp>,%a2
    9930:	4e92           	jsr %a2@
    9932:	508f           	addql #8,%sp
    9934:	4a80           	tstl %d0
    9936:	660c           	bnes 9944 <_setlocale_r+0x2c>
    9938:	203c 0000 b9fc 	movel #47612,%d0
    993e:	241f           	movel %sp@+,%d2
    9940:	245f           	moveal %sp@+,%a2
    9942:	4e75           	rts
    9944:	4879 0000 b9fc 	pea b9fc <_ctype_+0x112>
    994a:	2f02           	movel %d2,%sp@-
    994c:	4e92           	jsr %a2@
    994e:	508f           	addql #8,%sp
    9950:	4a80           	tstl %d0
    9952:	67e4           	beqs 9938 <_setlocale_r+0x20>
    9954:	4879 0000 b9f0 	pea b9f0 <_ctype_+0x106>
    995a:	2f02           	movel %d2,%sp@-
    995c:	4e92           	jsr %a2@
    995e:	508f           	addql #8,%sp
    9960:	4a80           	tstl %d0
    9962:	67d4           	beqs 9938 <_setlocale_r+0x20>
    9964:	7000           	moveq #0,%d0
    9966:	241f           	movel %sp@+,%d2
    9968:	245f           	moveal %sp@+,%a2
    996a:	4e75           	rts

0000996c <__locale_mb_cur_max>:
    996c:	1039 0000 bf76 	moveb bf76 <__global_locale+0x126>,%d0
    9972:	4880           	extw %d0
    9974:	48c0           	extl %d0
    9976:	4e75           	rts

00009978 <setlocale>:
    9978:	2f0a           	movel %a2,%sp@-
    997a:	2f02           	movel %d2,%sp@-
    997c:	242f 0010      	movel %sp@(16),%d2
    9980:	6716           	beqs 9998 <setlocale+0x20>
    9982:	4879 0000 b9fe 	pea b9fe <_ctype_+0x114>
    9988:	2f02           	movel %d2,%sp@-
    998a:	45f9 0000 b3b0 	lea b3b0 <strcmp>,%a2
    9990:	4e92           	jsr %a2@
    9992:	508f           	addql #8,%sp
    9994:	4a80           	tstl %d0
    9996:	660c           	bnes 99a4 <setlocale+0x2c>
    9998:	203c 0000 b9fc 	movel #47612,%d0
    999e:	241f           	movel %sp@+,%d2
    99a0:	245f           	moveal %sp@+,%a2
    99a2:	4e75           	rts
    99a4:	4879 0000 b9fc 	pea b9fc <_ctype_+0x112>
    99aa:	2f02           	movel %d2,%sp@-
    99ac:	4e92           	jsr %a2@
    99ae:	508f           	addql #8,%sp
    99b0:	4a80           	tstl %d0
    99b2:	67e4           	beqs 9998 <setlocale+0x20>
    99b4:	4879 0000 b9f0 	pea b9f0 <_ctype_+0x106>
    99ba:	2f02           	movel %d2,%sp@-
    99bc:	4e92           	jsr %a2@
    99be:	508f           	addql #8,%sp
    99c0:	4a80           	tstl %d0
    99c2:	67d4           	beqs 9998 <setlocale+0x20>
    99c4:	7000           	moveq #0,%d0
    99c6:	241f           	movel %sp@+,%d2
    99c8:	245f           	moveal %sp@+,%a2
    99ca:	4e75           	rts

000099cc <__smakebuf_r>:
    99cc:	4e56 ffb8      	linkw %fp,#-72
    99d0:	48e7 3830      	moveml %d2-%d4/%a2-%a3,%sp@-
    99d4:	266e 0008      	moveal %fp@(8),%a3
    99d8:	246e 000c      	moveal %fp@(12),%a2
    99dc:	302a 000c      	movew %a2@(12),%d0
    99e0:	0800 0001      	btst #1,%d0
    99e4:	671a           	beqs 9a00 <__smakebuf_r+0x34>
    99e6:	41ea 0043      	lea %a2@(67),%a0
    99ea:	2488           	movel %a0,%a2@
    99ec:	2548 0010      	movel %a0,%a2@(16)
    99f0:	7001           	moveq #1,%d0
    99f2:	2540 0014      	movel %d0,%a2@(20)
    99f6:	4cee 0c1c ffa4 	moveml %fp@(-92),%d2-%d4/%a2-%a3
    99fc:	4e5e           	unlk %fp
    99fe:	4e75           	rts
    9a00:	322a 000e      	movew %a2@(14),%d1
    9a04:	6b00 0084      	bmiw 9a8a <__smakebuf_r+0xbe>
    9a08:	486e ffb8      	pea %fp@(-72)
    9a0c:	3041           	moveaw %d1,%a0
    9a0e:	2f08           	movel %a0,%sp@-
    9a10:	2f0b           	movel %a3,%sp@-
    9a12:	4eb9 0000 b588 	jsr b588 <_fstat_r>
    9a18:	4fef 000c      	lea %sp@(12),%sp
    9a1c:	4a80           	tstl %d0
    9a1e:	6d66           	blts 9a86 <__smakebuf_r+0xba>
    9a20:	242e ffbc      	movel %fp@(-68),%d2
    9a24:	0282 0000 f000 	andil #61440,%d2
    9a2a:	0c82 0000 2000 	cmpil #8192,%d2
    9a30:	57c2           	seq %d2
    9a32:	4882           	extw %d2
    9a34:	48c2           	extl %d2
    9a36:	4482           	negl %d2
    9a38:	263c 0000 0400 	movel #1024,%d3
    9a3e:	283c 0000 0800 	movel #2048,%d4
    9a44:	2f03           	movel %d3,%sp@-
    9a46:	2f0b           	movel %a3,%sp@-
    9a48:	4eb9 0000 9ba4 	jsr 9ba4 <_malloc_r>
    9a4e:	508f           	addql #8,%sp
    9a50:	4a80           	tstl %d0
    9a52:	6750           	beqs 9aa4 <__smakebuf_r+0xd8>
    9a54:	277c 0000 8c38 	movel #35896,%a3@(58)
    9a5a:	003a 
    9a5c:	322a 000c      	movew %a2@(12),%d1
    9a60:	0041 0080      	oriw #128,%d1
    9a64:	3541 000c      	movew %d1,%a2@(12)
    9a68:	2480           	movel %d0,%a2@
    9a6a:	2540 0010      	movel %d0,%a2@(16)
    9a6e:	2543 0014      	movel %d3,%a2@(20)
    9a72:	4a82           	tstl %d2
    9a74:	6666           	bnes 9adc <__smakebuf_r+0x110>
    9a76:	8244           	orw %d4,%d1
    9a78:	3541 000c      	movew %d1,%a2@(12)
    9a7c:	4cee 0c1c ffa4 	moveml %fp@(-92),%d2-%d4/%a2-%a3
    9a82:	4e5e           	unlk %fp
    9a84:	4e75           	rts
    9a86:	302a 000c      	movew %a2@(12),%d0
    9a8a:	7400           	moveq #0,%d2
    9a8c:	4a00           	tstb %d0
    9a8e:	6a40           	bpls 9ad0 <__smakebuf_r+0x104>
    9a90:	7640           	moveq #64,%d3
    9a92:	7800           	moveq #0,%d4
    9a94:	2f03           	movel %d3,%sp@-
    9a96:	2f0b           	movel %a3,%sp@-
    9a98:	4eb9 0000 9ba4 	jsr 9ba4 <_malloc_r>
    9a9e:	508f           	addql #8,%sp
    9aa0:	4a80           	tstl %d0
    9aa2:	66b0           	bnes 9a54 <__smakebuf_r+0x88>
    9aa4:	302a 000c      	movew %a2@(12),%d0
    9aa8:	0800 0009      	btst #9,%d0
    9aac:	6600 ff48      	bnew 99f6 <__smakebuf_r+0x2a>
    9ab0:	0240 fffc      	andiw #-4,%d0
    9ab4:	0040 0002      	oriw #2,%d0
    9ab8:	3540 000c      	movew %d0,%a2@(12)
    9abc:	41ea 0043      	lea %a2@(67),%a0
    9ac0:	2488           	movel %a0,%a2@
    9ac2:	2548 0010      	movel %a0,%a2@(16)
    9ac6:	7001           	moveq #1,%d0
    9ac8:	2540 0014      	movel %d0,%a2@(20)
    9acc:	6000 ff28      	braw 99f6 <__smakebuf_r+0x2a>
    9ad0:	263c 0000 0400 	movel #1024,%d3
    9ad6:	7800           	moveq #0,%d4
    9ad8:	6000 ff6a      	braw 9a44 <__smakebuf_r+0x78>
    9adc:	306a 000e      	moveaw %a2@(14),%a0
    9ae0:	2f08           	movel %a0,%sp@-
    9ae2:	2f0b           	movel %a3,%sp@-
    9ae4:	4eb9 0000 b5b8 	jsr b5b8 <_isatty_r>
    9aea:	508f           	addql #8,%sp
    9aec:	322a 000c      	movew %a2@(12),%d1
    9af0:	4a80           	tstl %d0
    9af2:	6782           	beqs 9a76 <__smakebuf_r+0xaa>
    9af4:	0241 fffc      	andiw #-4,%d1
    9af8:	0041 0001      	oriw #1,%d1
    9afc:	8244           	orw %d4,%d1
    9afe:	3541 000c      	movew %d1,%a2@(12)
    9b02:	6000 ff78      	braw 9a7c <__smakebuf_r+0xb0>

00009b06 <__swhatbuf_r>:
    9b06:	4e56 ffb8      	linkw %fp,#-72
    9b0a:	2f0a           	movel %a2,%sp@-
    9b0c:	246e 000c      	moveal %fp@(12),%a2
    9b10:	302a 000e      	movew %a2@(14),%d0
    9b14:	6b50           	bmis 9b66 <__swhatbuf_r+0x60>
    9b16:	486e ffb8      	pea %fp@(-72)
    9b1a:	3040           	moveaw %d0,%a0
    9b1c:	2f08           	movel %a0,%sp@-
    9b1e:	2f2e 0008      	movel %fp@(8),%sp@-
    9b22:	4eb9 0000 b588 	jsr b588 <_fstat_r>
    9b28:	4fef 000c      	lea %sp@(12),%sp
    9b2c:	4a80           	tstl %d0
    9b2e:	6d36           	blts 9b66 <__swhatbuf_r+0x60>
    9b30:	222e ffbc      	movel %fp@(-68),%d1
    9b34:	0281 0000 f000 	andil #61440,%d1
    9b3a:	0c81 0000 2000 	cmpil #8192,%d1
    9b40:	57c1           	seq %d1
    9b42:	4881           	extw %d1
    9b44:	48c1           	extl %d1
    9b46:	4481           	negl %d1
    9b48:	327c 0400      	moveaw #1024,%a1
    9b4c:	203c 0000 0800 	movel #2048,%d0
    9b52:	206e 0014      	moveal %fp@(20),%a0
    9b56:	2081           	movel %d1,%a0@
    9b58:	206e 0010      	moveal %fp@(16),%a0
    9b5c:	2089           	movel %a1,%a0@
    9b5e:	246e ffb4      	moveal %fp@(-76),%a2
    9b62:	4e5e           	unlk %fp
    9b64:	4e75           	rts
    9b66:	7200           	moveq #0,%d1
    9b68:	4a2a 000d      	tstb %a2@(13)
    9b6c:	6a1a           	bpls 9b88 <__swhatbuf_r+0x82>
    9b6e:	327c 0040      	moveaw #64,%a1
    9b72:	7000           	moveq #0,%d0
    9b74:	206e 0014      	moveal %fp@(20),%a0
    9b78:	2081           	movel %d1,%a0@
    9b7a:	206e 0010      	moveal %fp@(16),%a0
    9b7e:	2089           	movel %a1,%a0@
    9b80:	246e ffb4      	moveal %fp@(-76),%a2
    9b84:	4e5e           	unlk %fp
    9b86:	4e75           	rts
    9b88:	327c 0400      	moveaw #1024,%a1
    9b8c:	7000           	moveq #0,%d0
    9b8e:	206e 0014      	moveal %fp@(20),%a0
    9b92:	2081           	movel %d1,%a0@
    9b94:	206e 0010      	moveal %fp@(16),%a0
    9b98:	2089           	movel %a1,%a0@
    9b9a:	246e ffb4      	moveal %fp@(-76),%a2
    9b9e:	4e5e           	unlk %fp
    9ba0:	4e75           	rts
	...

00009ba4 <_malloc_r>:
    9ba4:	48e7 3e3e      	moveml %d2-%d6/%a2-%fp,%sp@-
    9ba8:	266f 002c      	moveal %sp@(44),%a3
    9bac:	226f 0030      	moveal %sp@(48),%a1
    9bb0:	41e9 000b      	lea %a1@(11),%a0
    9bb4:	7016           	moveq #22,%d0
    9bb6:	b088           	cmpl %a0,%d0
    9bb8:	655e           	bcss 9c18 <_malloc_r+0x74>
    9bba:	7210           	moveq #16,%d1
    9bbc:	b289           	cmpl %a1,%d1
    9bbe:	6500 01d0      	bcsw 9d90 <_malloc_r+0x1ec>
    9bc2:	2f0b           	movel %a3,%sp@-
    9bc4:	4eb9 0000 a778 	jsr a778 <__malloc_lock>
    9bca:	588f           	addql #4,%sp
    9bcc:	307c 0018      	moveaw #24,%a0
    9bd0:	7602           	moveq #2,%d3
    9bd2:	7410           	moveq #16,%d2
    9bd4:	d1fc 0000 bfc0 	addal #49088,%a0
    9bda:	2468 0004      	moveal %a0@(4),%a2
    9bde:	2008           	movel %a0,%d0
    9be0:	5180           	subql #8,%d0
    9be2:	b08a           	cmpl %a2,%d0
    9be4:	6700 01dc      	beqw 9dc2 <_malloc_r+0x21e>
    9be8:	70fc           	moveq #-4,%d0
    9bea:	c0aa 0004      	andl %a2@(4),%d0
    9bee:	206a 000c      	moveal %a2@(12),%a0
    9bf2:	226a 0008      	moveal %a2@(8),%a1
    9bf6:	2348 000c      	movel %a0,%a1@(12)
    9bfa:	2149 0008      	movel %a1,%a0@(8)
    9bfe:	7a01           	moveq #1,%d5
    9c00:	8bb2 0804      	orl %d5,%a2@(0000000000000004,%d0:l)
    9c04:	2f0b           	movel %a3,%sp@-
    9c06:	4eb9 0000 a77a 	jsr a77a <__malloc_unlock>
    9c0c:	200a           	movel %a2,%d0
    9c0e:	5080           	addql #8,%d0
    9c10:	588f           	addql #4,%sp
    9c12:	4cdf 7c7c      	moveml %sp@+,%d2-%d6/%a2-%fp
    9c16:	4e75           	rts
    9c18:	2408           	movel %a0,%d2
    9c1a:	76f8           	moveq #-8,%d3
    9c1c:	c483           	andl %d3,%d2
    9c1e:	b0fc 0000      	cmpaw #0,%a0
    9c22:	6d00 016c      	bltw 9d90 <_malloc_r+0x1ec>
    9c26:	b489           	cmpl %a1,%d2
    9c28:	6500 0166      	bcsw 9d90 <_malloc_r+0x1ec>
    9c2c:	2f0b           	movel %a3,%sp@-
    9c2e:	4eb9 0000 a778 	jsr a778 <__malloc_lock>
    9c34:	588f           	addql #4,%sp
    9c36:	2602           	movel %d2,%d3
    9c38:	0c82 0000 01f7 	cmpil #503,%d2
    9c3e:	6300 0414      	blsw a054 <_malloc_r+0x4b0>
    9c42:	7c09           	moveq #9,%d6
    9c44:	ecab           	lsrl %d6,%d3
    9c46:	6700 0154      	beqw 9d9c <_malloc_r+0x1f8>
    9c4a:	7004           	moveq #4,%d0
    9c4c:	b083           	cmpl %d3,%d0
    9c4e:	6500 031c      	bcsw 9f6c <_malloc_r+0x3c8>
    9c52:	2602           	movel %d2,%d3
    9c54:	ec8b           	lsrl #6,%d3
    9c56:	387c 0038      	moveaw #56,%a4
    9c5a:	d9c3           	addal %d3,%a4
    9c5c:	7239           	moveq #57,%d1
    9c5e:	d681           	addl %d1,%d3
    9c60:	2003           	movel %d3,%d0
    9c62:	e788           	lsll #3,%d0
    9c64:	2240           	moveal %d0,%a1
    9c66:	d3fc 0000 bfc0 	addal #49088,%a1
    9c6c:	41e9 fff8      	lea %a1@(-8),%a0
    9c70:	2469 0004      	moveal %a1@(4),%a2
    9c74:	b5c8           	cmpal %a0,%a2
    9c76:	6720           	beqs 9c98 <_malloc_r+0xf4>
    9c78:	72fc           	moveq #-4,%d1
    9c7a:	c2aa 0004      	andl %a2@(4),%d1
    9c7e:	2001           	movel %d1,%d0
    9c80:	9082           	subl %d2,%d0
    9c82:	780f           	moveq #15,%d4
    9c84:	b880           	cmpl %d0,%d4
    9c86:	6d00 0256      	bltw 9ede <_malloc_r+0x33a>
    9c8a:	4a80           	tstl %d0
    9c8c:	6c00 0256      	bgew 9ee4 <_malloc_r+0x340>
    9c90:	246a 000c      	moveal %a2@(12),%a2
    9c94:	b5c8           	cmpal %a0,%a2
    9c96:	66e0           	bnes 9c78 <_malloc_r+0xd4>
    9c98:	2479 0000 bfd0 	moveal bfd0 <__malloc_av_+0x10>,%a2
    9c9e:	b5fc 0000 bfc8 	cmpal #49096,%a2
    9ca4:	6700 0138      	beqw 9dde <_malloc_r+0x23a>
    9ca8:	70fc           	moveq #-4,%d0
    9caa:	c0aa 0004      	andl %a2@(4),%d0
    9cae:	2200           	movel %d0,%d1
    9cb0:	9282           	subl %d2,%d1
    9cb2:	7c0f           	moveq #15,%d6
    9cb4:	bc81           	cmpl %d1,%d6
    9cb6:	6d00 03ba      	bltw a072 <_malloc_r+0x4ce>
    9cba:	23fc 0000 bfc8 	movel #49096,bfd4 <__malloc_av_+0x14>
    9cc0:	0000 bfd4 
    9cc4:	23fc 0000 bfc8 	movel #49096,bfd0 <__malloc_av_+0x10>
    9cca:	0000 bfd0 
    9cce:	4a81           	tstl %d1
    9cd0:	6c00 036a      	bgew a03c <_malloc_r+0x498>
    9cd4:	2239 0000 bfc4 	movel bfc4 <__malloc_av_+0x4>,%d1
    9cda:	0c80 0000 01ff 	cmpil #511,%d0
    9ce0:	6200 022a      	bhiw 9f0c <_malloc_r+0x368>
    9ce4:	e688           	lsrl #3,%d0
    9ce6:	2a00           	movel %d0,%d5
    9ce8:	e485           	asrl #2,%d5
    9cea:	7801           	moveq #1,%d4
    9cec:	ebac           	lsll %d5,%d4
    9cee:	8284           	orl %d4,%d1
    9cf0:	23c1 0000 bfc4 	movel %d1,bfc4 <__malloc_av_+0x4>
    9cf6:	e788           	lsll #3,%d0
    9cf8:	2040           	moveal %d0,%a0
    9cfa:	d1fc 0000 bfc8 	addal #49096,%a0
    9d00:	2250           	moveal %a0@,%a1
    9d02:	49e8 fff8      	lea %a0@(-8),%a4
    9d06:	254c 000c      	movel %a4,%a2@(12)
    9d0a:	2549 0008      	movel %a1,%a2@(8)
    9d0e:	208a           	movel %a2,%a0@
    9d10:	234a 000c      	movel %a2,%a1@(12)
    9d14:	2003           	movel %d3,%d0
    9d16:	e480           	asrl #2,%d0
    9d18:	7801           	moveq #1,%d4
    9d1a:	e1ac           	lsll %d0,%d4
    9d1c:	b284           	cmpl %d4,%d1
    9d1e:	6500 00d2      	bcsw 9df2 <_malloc_r+0x24e>
    9d22:	2004           	movel %d4,%d0
    9d24:	c081           	andl %d1,%d0
    9d26:	660e           	bnes 9d36 <_malloc_r+0x192>
    9d28:	7afc           	moveq #-4,%d5
    9d2a:	c685           	andl %d5,%d3
    9d2c:	5883           	addql #4,%d3
    9d2e:	d884           	addl %d4,%d4
    9d30:	2004           	movel %d4,%d0
    9d32:	c081           	andl %d1,%d0
    9d34:	67f6           	beqs 9d2c <_malloc_r+0x188>
    9d36:	2003           	movel %d3,%d0
    9d38:	e788           	lsll #3,%d0
    9d3a:	2840           	moveal %d0,%a4
    9d3c:	d9fc 0000 bfc0 	addal #49088,%a4
    9d42:	224c           	moveal %a4,%a1
    9d44:	2a03           	movel %d3,%d5
    9d46:	2069 000c      	moveal %a1@(12),%a0
    9d4a:	b1c9           	cmpal %a1,%a0
    9d4c:	6700 025c      	beqw 9faa <_malloc_r+0x406>
    9d50:	72fc           	moveq #-4,%d1
    9d52:	c2a8 0004      	andl %a0@(4),%d1
    9d56:	2001           	movel %d1,%d0
    9d58:	9082           	subl %d2,%d0
    9d5a:	2448           	moveal %a0,%a2
    9d5c:	2068 000c      	moveal %a0@(12),%a0
    9d60:	7c0f           	moveq #15,%d6
    9d62:	bc80           	cmpl %d0,%d6
    9d64:	6d00 0284      	bltw 9fea <_malloc_r+0x446>
    9d68:	4a80           	tstl %d0
    9d6a:	6dde           	blts 9d4a <_malloc_r+0x1a6>
    9d6c:	7a01           	moveq #1,%d5
    9d6e:	8bb2 1804      	orl %d5,%a2@(0000000000000004,%d1:l)
    9d72:	226a 0008      	moveal %a2@(8),%a1
    9d76:	2348 000c      	movel %a0,%a1@(12)
    9d7a:	2149 0008      	movel %a1,%a0@(8)
    9d7e:	2f0b           	movel %a3,%sp@-
    9d80:	4eb9 0000 a77a 	jsr a77a <__malloc_unlock>
    9d86:	200a           	movel %a2,%d0
    9d88:	5080           	addql #8,%d0
    9d8a:	588f           	addql #4,%sp
    9d8c:	6000 fe84      	braw 9c12 <_malloc_r+0x6e>
    9d90:	780c           	moveq #12,%d4
    9d92:	2684           	movel %d4,%a3@
    9d94:	7000           	moveq #0,%d0
    9d96:	4cdf 7c7c      	moveml %sp@+,%d2-%d6/%a2-%fp
    9d9a:	4e75           	rts
    9d9c:	203c 0000 0200 	movel #512,%d0
    9da2:	7640           	moveq #64,%d3
    9da4:	387c 003f      	moveaw #63,%a4
    9da8:	2240           	moveal %d0,%a1
    9daa:	d3fc 0000 bfc0 	addal #49088,%a1
    9db0:	41e9 fff8      	lea %a1@(-8),%a0
    9db4:	2469 0004      	moveal %a1@(4),%a2
    9db8:	b5c8           	cmpal %a0,%a2
    9dba:	6600 febc      	bnew 9c78 <_malloc_r+0xd4>
    9dbe:	6000 fed8      	braw 9c98 <_malloc_r+0xf4>
    9dc2:	2468 000c      	moveal %a0@(12),%a2
    9dc6:	b5c8           	cmpal %a0,%a2
    9dc8:	6600 fe1e      	bnew 9be8 <_malloc_r+0x44>
    9dcc:	5483           	addql #2,%d3
    9dce:	2479 0000 bfd0 	moveal bfd0 <__malloc_av_+0x10>,%a2
    9dd4:	b5fc 0000 bfc8 	cmpal #49096,%a2
    9dda:	6600 fecc      	bnew 9ca8 <_malloc_r+0x104>
    9dde:	2239 0000 bfc4 	movel bfc4 <__malloc_av_+0x4>,%d1
    9de4:	2003           	movel %d3,%d0
    9de6:	e480           	asrl #2,%d0
    9de8:	7801           	moveq #1,%d4
    9dea:	e1ac           	lsll %d0,%d4
    9dec:	b284           	cmpl %d4,%d1
    9dee:	6400 ff32      	bccw 9d22 <_malloc_r+0x17e>
    9df2:	2479 0000 bfc8 	moveal bfc8 <__malloc_av_+0x8>,%a2
    9df8:	7afc           	moveq #-4,%d5
    9dfa:	caaa 0004      	andl %a2@(4),%d5
    9dfe:	b485           	cmpl %d5,%d2
    9e00:	620c           	bhis 9e0e <_malloc_r+0x26a>
    9e02:	2005           	movel %d5,%d0
    9e04:	9082           	subl %d2,%d0
    9e06:	7c0f           	moveq #15,%d6
    9e08:	bc80           	cmpl %d0,%d6
    9e0a:	6d00 00a6      	bltw 9eb2 <_malloc_r+0x30e>
    9e0e:	280a           	movel %a2,%d4
    9e10:	d885           	addl %d5,%d4
    9e12:	2602           	movel %d2,%d3
    9e14:	d6b9 0000 c3fc 	addl c3fc <__malloc_top_pad>,%d3
    9e1a:	70ff           	moveq #-1,%d0
    9e1c:	b0b9 0000 bfb8 	cmpl bfb8 <__malloc_sbrk_base>,%d0
    9e22:	6700 03e8      	beqw a20c <_malloc_r+0x668>
    9e26:	0683 0000 100f 	addil #4111,%d3
    9e2c:	0243 f000      	andiw #-4096,%d3
    9e30:	2f03           	movel %d3,%sp@-
    9e32:	2f0b           	movel %a3,%sp@-
    9e34:	4df9 0000 b270 	lea b270 <_sbrk_r>,%fp
    9e3a:	4e96           	jsr %fp@
    9e3c:	2840           	moveal %d0,%a4
    9e3e:	508f           	addql #8,%sp
    9e40:	7cff           	moveq #-1,%d6
    9e42:	bc80           	cmpl %d0,%d6
    9e44:	6700 02a2      	beqw a0e8 <_malloc_r+0x544>
    9e48:	b084           	cmpl %d4,%d0
    9e4a:	6500 0294      	bcsw a0e0 <_malloc_r+0x53c>
    9e4e:	4bf9 0000 c3cc 	lea c3cc <__malloc_current_mallinfo>,%a5
    9e54:	2043           	moveal %d3,%a0
    9e56:	d1d5           	addal %a5@,%a0
    9e58:	2008           	movel %a0,%d0
    9e5a:	2a88           	movel %a0,%a5@
    9e5c:	b9c4           	cmpal %d4,%a4
    9e5e:	6600 02ee      	bnew a14e <_malloc_r+0x5aa>
    9e62:	220c           	movel %a4,%d1
    9e64:	0281 0000 0fff 	andil #4095,%d1
    9e6a:	6600 02e2      	bnew a14e <_malloc_r+0x5aa>
    9e6e:	2879 0000 bfc8 	moveal bfc8 <__malloc_av_+0x8>,%a4
    9e74:	d685           	addl %d5,%d3
    9e76:	7001           	moveq #1,%d0
    9e78:	8680           	orl %d0,%d3
    9e7a:	2943 0004      	movel %d3,%a4@(4)
    9e7e:	b1f9 0000 c3f8 	cmpal c3f8 <__malloc_max_sbrked_mem>,%a0
    9e84:	6306           	blss 9e8c <_malloc_r+0x2e8>
    9e86:	23c8 0000 c3f8 	movel %a0,c3f8 <__malloc_max_sbrked_mem>
    9e8c:	b1f9 0000 c3f4 	cmpal c3f4 <__malloc_max_total_mem>,%a0
    9e92:	6306           	blss 9e9a <_malloc_r+0x2f6>
    9e94:	23c8 0000 c3f4 	movel %a0,c3f4 <__malloc_max_total_mem>
    9e9a:	244c           	moveal %a4,%a2
    9e9c:	7cfc           	moveq #-4,%d6
    9e9e:	c686           	andl %d6,%d3
    9ea0:	2003           	movel %d3,%d0
    9ea2:	9082           	subl %d2,%d0
    9ea4:	b483           	cmpl %d3,%d2
    9ea6:	6200 0346      	bhiw a1ee <_malloc_r+0x64a>
    9eaa:	720f           	moveq #15,%d1
    9eac:	b280           	cmpl %d0,%d1
    9eae:	6c00 033e      	bgew a1ee <_malloc_r+0x64a>
    9eb2:	7601           	moveq #1,%d3
    9eb4:	8682           	orl %d2,%d3
    9eb6:	2543 0004      	movel %d3,%a2@(4)
    9eba:	41f2 2800      	lea %a2@(0000000000000000,%d2:l),%a0
    9ebe:	23c8 0000 bfc8 	movel %a0,bfc8 <__malloc_av_+0x8>
    9ec4:	7801           	moveq #1,%d4
    9ec6:	8880           	orl %d0,%d4
    9ec8:	2144 0004      	movel %d4,%a0@(4)
    9ecc:	2f0b           	movel %a3,%sp@-
    9ece:	4eb9 0000 a77a 	jsr a77a <__malloc_unlock>
    9ed4:	200a           	movel %a2,%d0
    9ed6:	5080           	addql #8,%d0
    9ed8:	588f           	addql #4,%sp
    9eda:	6000 fd36      	braw 9c12 <_malloc_r+0x6e>
    9ede:	260c           	movel %a4,%d3
    9ee0:	6000 fdb6      	braw 9c98 <_malloc_r+0xf4>
    9ee4:	206a 000c      	moveal %a2@(12),%a0
    9ee8:	226a 0008      	moveal %a2@(8),%a1
    9eec:	2348 000c      	movel %a0,%a1@(12)
    9ef0:	2149 0008      	movel %a1,%a0@(8)
    9ef4:	7a01           	moveq #1,%d5
    9ef6:	8bb2 1804      	orl %d5,%a2@(0000000000000004,%d1:l)
    9efa:	2f0b           	movel %a3,%sp@-
    9efc:	4eb9 0000 a77a 	jsr a77a <__malloc_unlock>
    9f02:	200a           	movel %a2,%d0
    9f04:	5080           	addql #8,%d0
    9f06:	588f           	addql #4,%sp
    9f08:	6000 fd08      	braw 9c12 <_malloc_r+0x6e>
    9f0c:	2800           	movel %d0,%d4
    9f0e:	7a09           	moveq #9,%d5
    9f10:	eaac           	lsrl %d5,%d4
    9f12:	7c04           	moveq #4,%d6
    9f14:	bc84           	cmpl %d4,%d6
    9f16:	6400 01a0      	bccw a0b8 <_malloc_r+0x514>
    9f1a:	7a14           	moveq #20,%d5
    9f1c:	ba84           	cmpl %d4,%d5
    9f1e:	6500 0316      	bcsw a236 <_malloc_r+0x692>
    9f22:	327c 005b      	moveaw #91,%a1
    9f26:	d3c4           	addal %d4,%a1
    9f28:	7c5c           	moveq #92,%d6
    9f2a:	d886           	addl %d6,%d4
    9f2c:	e78c           	lsll #3,%d4
    9f2e:	2044           	moveal %d4,%a0
    9f30:	d1fc 0000 bfc0 	addal #49088,%a0
    9f36:	49e8 fff8      	lea %a0@(-8),%a4
    9f3a:	2050           	moveal %a0@,%a0
    9f3c:	b1cc           	cmpal %a4,%a0
    9f3e:	6700 01de      	beqw a11e <_malloc_r+0x57a>
    9f42:	78fc           	moveq #-4,%d4
    9f44:	c8a8 0004      	andl %a0@(4),%d4
    9f48:	b084           	cmpl %d4,%d0
    9f4a:	6408           	bccs 9f54 <_malloc_r+0x3b0>
    9f4c:	2068 0008      	moveal %a0@(8),%a0
    9f50:	b1cc           	cmpal %a4,%a0
    9f52:	66ee           	bnes 9f42 <_malloc_r+0x39e>
    9f54:	2868 000c      	moveal %a0@(12),%a4
    9f58:	254c 000c      	movel %a4,%a2@(12)
    9f5c:	2548 0008      	movel %a0,%a2@(8)
    9f60:	294a 0008      	movel %a2,%a4@(8)
    9f64:	214a 000c      	movel %a2,%a0@(12)
    9f68:	6000 fdaa      	braw 9d14 <_malloc_r+0x170>
    9f6c:	7814           	moveq #20,%d4
    9f6e:	b883           	cmpl %d3,%d4
    9f70:	6400 0184      	bccw a0f6 <_malloc_r+0x552>
    9f74:	7c54           	moveq #84,%d6
    9f76:	bc83           	cmpl %d3,%d6
    9f78:	6500 02ee      	bcsw a268 <_malloc_r+0x6c4>
    9f7c:	2602           	movel %d2,%d3
    9f7e:	700c           	moveq #12,%d0
    9f80:	e0ab           	lsrl %d0,%d3
    9f82:	387c 006e      	moveaw #110,%a4
    9f86:	d9c3           	addal %d3,%a4
    9f88:	726f           	moveq #111,%d1
    9f8a:	d681           	addl %d1,%d3
    9f8c:	2003           	movel %d3,%d0
    9f8e:	e788           	lsll #3,%d0
    9f90:	2240           	moveal %d0,%a1
    9f92:	d3fc 0000 bfc0 	addal #49088,%a1
    9f98:	41e9 fff8      	lea %a1@(-8),%a0
    9f9c:	2469 0004      	moveal %a1@(4),%a2
    9fa0:	b5c8           	cmpal %a0,%a2
    9fa2:	6600 fcd4      	bnew 9c78 <_malloc_r+0xd4>
    9fa6:	6000 fcf0      	braw 9c98 <_malloc_r+0xf4>
    9faa:	5089           	addql #8,%a1
    9fac:	5285           	addql #1,%d5
    9fae:	7003           	moveq #3,%d0
    9fb0:	c085           	andl %d5,%d0
    9fb2:	6600 fd92      	bnew 9d46 <_malloc_r+0x1a2>
    9fb6:	7003           	moveq #3,%d0
    9fb8:	c083           	andl %d3,%d0
    9fba:	6700 040e      	beqw a3ca <_malloc_r+0x826>
    9fbe:	5383           	subql #1,%d3
    9fc0:	518c           	subql #8,%a4
    9fc2:	b9ec 0008      	cmpal %a4@(8),%a4
    9fc6:	67ee           	beqs 9fb6 <_malloc_r+0x412>
    9fc8:	2039 0000 bfc4 	movel bfc4 <__malloc_av_+0x4>,%d0
    9fce:	d884           	addl %d4,%d4
    9fd0:	b084           	cmpl %d4,%d0
    9fd2:	6500 fe1e      	bcsw 9df2 <_malloc_r+0x24e>
    9fd6:	4a84           	tstl %d4
    9fd8:	6700 fe18      	beqw 9df2 <_malloc_r+0x24e>
    9fdc:	2204           	movel %d4,%d1
    9fde:	c280           	andl %d0,%d1
    9fe0:	6600 03b0      	bnew a392 <_malloc_r+0x7ee>
    9fe4:	5885           	addql #4,%d5
    9fe6:	d884           	addl %d4,%d4
    9fe8:	60f2           	bras 9fdc <_malloc_r+0x438>
    9fea:	43f2 2800      	lea %a2@(0000000000000000,%d2:l),%a1
    9fee:	7601           	moveq #1,%d3
    9ff0:	8682           	orl %d2,%d3
    9ff2:	2543 0004      	movel %d3,%a2@(4)
    9ff6:	286a 0008      	moveal %a2@(8),%a4
    9ffa:	2948 000c      	movel %a0,%a4@(12)
    9ffe:	214c 0008      	movel %a4,%a0@(8)
    a002:	23c9 0000 bfd4 	movel %a1,bfd4 <__malloc_av_+0x14>
    a008:	23c9 0000 bfd0 	movel %a1,bfd0 <__malloc_av_+0x10>
    a00e:	237c 0000 bfc8 	movel #49096,%a1@(12)
    a014:	000c 
    a016:	237c 0000 bfc8 	movel #49096,%a1@(8)
    a01c:	0008 
    a01e:	7801           	moveq #1,%d4
    a020:	8880           	orl %d0,%d4
    a022:	2344 0004      	movel %d4,%a1@(4)
    a026:	2580 1800      	movel %d0,%a2@(0000000000000000,%d1:l)
    a02a:	2f0b           	movel %a3,%sp@-
    a02c:	4eb9 0000 a77a 	jsr a77a <__malloc_unlock>
    a032:	200a           	movel %a2,%d0
    a034:	5080           	addql #8,%d0
    a036:	588f           	addql #4,%sp
    a038:	6000 fbd8      	braw 9c12 <_malloc_r+0x6e>
    a03c:	7a01           	moveq #1,%d5
    a03e:	8bb2 0804      	orl %d5,%a2@(0000000000000004,%d0:l)
    a042:	2f0b           	movel %a3,%sp@-
    a044:	4eb9 0000 a77a 	jsr a77a <__malloc_unlock>
    a04a:	200a           	movel %a2,%d0
    a04c:	5080           	addql #8,%d0
    a04e:	588f           	addql #4,%sp
    a050:	6000 fbc0      	braw 9c12 <_malloc_r+0x6e>
    a054:	e68b           	lsrl #3,%d3
    a056:	2042           	moveal %d2,%a0
    a058:	5088           	addql #8,%a0
    a05a:	d1fc 0000 bfc0 	addal #49088,%a0
    a060:	2468 0004      	moveal %a0@(4),%a2
    a064:	2008           	movel %a0,%d0
    a066:	5180           	subql #8,%d0
    a068:	b08a           	cmpl %a2,%d0
    a06a:	6600 fb7c      	bnew 9be8 <_malloc_r+0x44>
    a06e:	6000 fd52      	braw 9dc2 <_malloc_r+0x21e>
    a072:	41f2 2800      	lea %a2@(0000000000000000,%d2:l),%a0
    a076:	7601           	moveq #1,%d3
    a078:	8682           	orl %d2,%d3
    a07a:	2543 0004      	movel %d3,%a2@(4)
    a07e:	23c8 0000 bfd4 	movel %a0,bfd4 <__malloc_av_+0x14>
    a084:	23c8 0000 bfd0 	movel %a0,bfd0 <__malloc_av_+0x10>
    a08a:	217c 0000 bfc8 	movel #49096,%a0@(12)
    a090:	000c 
    a092:	217c 0000 bfc8 	movel #49096,%a0@(8)
    a098:	0008 
    a09a:	7801           	moveq #1,%d4
    a09c:	8881           	orl %d1,%d4
    a09e:	2144 0004      	movel %d4,%a0@(4)
    a0a2:	2581 0800      	movel %d1,%a2@(0000000000000000,%d0:l)
    a0a6:	2f0b           	movel %a3,%sp@-
    a0a8:	4eb9 0000 a77a 	jsr a77a <__malloc_unlock>
    a0ae:	200a           	movel %a2,%d0
    a0b0:	5080           	addql #8,%d0
    a0b2:	588f           	addql #4,%sp
    a0b4:	6000 fb5c      	braw 9c12 <_malloc_r+0x6e>
    a0b8:	2800           	movel %d0,%d4
    a0ba:	ec8c           	lsrl #6,%d4
    a0bc:	2044           	moveal %d4,%a0
    a0be:	43e8 0038      	lea %a0@(56),%a1
    a0c2:	41e8 0039      	lea %a0@(57),%a0
    a0c6:	2808           	movel %a0,%d4
    a0c8:	e78c           	lsll #3,%d4
    a0ca:	2044           	moveal %d4,%a0
    a0cc:	d1fc 0000 bfc0 	addal #49088,%a0
    a0d2:	49e8 fff8      	lea %a0@(-8),%a4
    a0d6:	2050           	moveal %a0@,%a0
    a0d8:	b1cc           	cmpal %a4,%a0
    a0da:	6600 fe66      	bnew 9f42 <_malloc_r+0x39e>
    a0de:	603e           	bras a11e <_malloc_r+0x57a>
    a0e0:	b5fc 0000 bfc0 	cmpal #49088,%a2
    a0e6:	675a           	beqs a142 <_malloc_r+0x59e>
    a0e8:	2479 0000 bfc8 	moveal bfc8 <__malloc_av_+0x8>,%a2
    a0ee:	262a 0004      	movel %a2@(4),%d3
    a0f2:	6000 fda8      	braw 9e9c <_malloc_r+0x2f8>
    a0f6:	387c 005b      	moveaw #91,%a4
    a0fa:	d9c3           	addal %d3,%a4
    a0fc:	7a5c           	moveq #92,%d5
    a0fe:	d685           	addl %d5,%d3
    a100:	2003           	movel %d3,%d0
    a102:	e788           	lsll #3,%d0
    a104:	2240           	moveal %d0,%a1
    a106:	d3fc 0000 bfc0 	addal #49088,%a1
    a10c:	41e9 fff8      	lea %a1@(-8),%a0
    a110:	2469 0004      	moveal %a1@(4),%a2
    a114:	b5c8           	cmpal %a0,%a2
    a116:	6600 fb60      	bnew 9c78 <_malloc_r+0xd4>
    a11a:	6000 fb7c      	braw 9c98 <_malloc_r+0xf4>
    a11e:	2009           	movel %a1,%d0
    a120:	e480           	asrl #2,%d0
    a122:	7801           	moveq #1,%d4
    a124:	e1ac           	lsll %d0,%d4
    a126:	8284           	orl %d4,%d1
    a128:	23c1 0000 bfc4 	movel %d1,bfc4 <__malloc_av_+0x4>
    a12e:	254c 000c      	movel %a4,%a2@(12)
    a132:	2548 0008      	movel %a0,%a2@(8)
    a136:	294a 0008      	movel %a2,%a4@(8)
    a13a:	214a 000c      	movel %a2,%a0@(12)
    a13e:	6000 fbd4      	braw 9d14 <_malloc_r+0x170>
    a142:	4bf9 0000 c3cc 	lea c3cc <__malloc_current_mallinfo>,%a5
    a148:	2003           	movel %d3,%d0
    a14a:	d095           	addl %a5@,%d0
    a14c:	2a80           	movel %d0,%a5@
    a14e:	72ff           	moveq #-1,%d1
    a150:	b2b9 0000 bfb8 	cmpl bfb8 <__malloc_sbrk_base>,%d1
    a156:	6700 0146      	beqw a29e <_malloc_r+0x6fa>
    a15a:	220c           	movel %a4,%d1
    a15c:	9284           	subl %d4,%d1
    a15e:	d280           	addl %d0,%d1
    a160:	2a81           	movel %d1,%a5@
    a162:	2c0c           	movel %a4,%d6
    a164:	7807           	moveq #7,%d4
    a166:	cc84           	andl %d4,%d6
    a168:	6700 00aa      	beqw a214 <_malloc_r+0x670>
    a16c:	7008           	moveq #8,%d0
    a16e:	9086           	subl %d6,%d0
    a170:	d9c0           	addal %d0,%a4
    a172:	d68c           	addl %a4,%d3
    a174:	283c 0000 1008 	movel #4104,%d4
    a17a:	9886           	subl %d6,%d4
    a17c:	9883           	subl %d3,%d4
    a17e:	0284 0000 0fff 	andil #4095,%d4
    a184:	2f04           	movel %d4,%sp@-
    a186:	2f0b           	movel %a3,%sp@-
    a188:	4e96           	jsr %fp@
    a18a:	508f           	addql #8,%sp
    a18c:	72ff           	moveq #-1,%d1
    a18e:	b280           	cmpl %d0,%d1
    a190:	676c           	beqs a1fe <_malloc_r+0x65a>
    a192:	908c           	subl %a4,%d0
    a194:	2600           	movel %d0,%d3
    a196:	d684           	addl %d4,%d3
    a198:	2044           	moveal %d4,%a0
    a19a:	d1d5           	addal %a5@,%a0
    a19c:	2a88           	movel %a0,%a5@
    a19e:	23cc 0000 bfc8 	movel %a4,bfc8 <__malloc_av_+0x8>
    a1a4:	7001           	moveq #1,%d0
    a1a6:	8680           	orl %d0,%d3
    a1a8:	2943 0004      	movel %d3,%a4@(4)
    a1ac:	b5fc 0000 bfc0 	cmpal #49088,%a2
    a1b2:	6700 fcca      	beqw 9e7e <_malloc_r+0x2da>
    a1b6:	720f           	moveq #15,%d1
    a1b8:	b285           	cmpl %d5,%d1
    a1ba:	642e           	bccs a1ea <_malloc_r+0x646>
    a1bc:	72f4           	moveq #-12,%d1
    a1be:	d285           	addl %d5,%d1
    a1c0:	76f8           	moveq #-8,%d3
    a1c2:	c283           	andl %d3,%d1
    a1c4:	7001           	moveq #1,%d0
    a1c6:	c0aa 0004      	andl %a2@(4),%d0
    a1ca:	8081           	orl %d1,%d0
    a1cc:	2540 0004      	movel %d0,%a2@(4)
    a1d0:	7805           	moveq #5,%d4
    a1d2:	2584 1804      	movel %d4,%a2@(0000000000000004,%d1:l)
    a1d6:	2584 1808      	movel %d4,%a2@(0000000000000008,%d1:l)
    a1da:	7a0f           	moveq #15,%d5
    a1dc:	ba81           	cmpl %d1,%d5
    a1de:	6500 0138      	bcsw a318 <_malloc_r+0x774>
    a1e2:	262c 0004      	movel %a4@(4),%d3
    a1e6:	6000 fc96      	braw 9e7e <_malloc_r+0x2da>
    a1ea:	2940 0004      	movel %d0,%a4@(4)
    a1ee:	2f0b           	movel %a3,%sp@-
    a1f0:	4eb9 0000 a77a 	jsr a77a <__malloc_unlock>
    a1f6:	588f           	addql #4,%sp
    a1f8:	7000           	moveq #0,%d0
    a1fa:	6000 fb9a      	braw 9d96 <_malloc_r+0x1f2>
    a1fe:	2243           	moveal %d3,%a1
    a200:	41f1 68f8      	lea %a1@(fffffffffffffff8,%d6:l),%a0
    a204:	2608           	movel %a0,%d3
    a206:	968c           	subl %a4,%d3
    a208:	7800           	moveq #0,%d4
    a20a:	608c           	bras a198 <_malloc_r+0x5f4>
    a20c:	7210           	moveq #16,%d1
    a20e:	d681           	addl %d1,%d3
    a210:	6000 fc1e      	braw 9e30 <_malloc_r+0x28c>
    a214:	280c           	movel %a4,%d4
    a216:	d883           	addl %d3,%d4
    a218:	4484           	negl %d4
    a21a:	0284 0000 0fff 	andil #4095,%d4
    a220:	2f04           	movel %d4,%sp@-
    a222:	2f0b           	movel %a3,%sp@-
    a224:	4e96           	jsr %fp@
    a226:	508f           	addql #8,%sp
    a228:	7cff           	moveq #-1,%d6
    a22a:	bc80           	cmpl %d0,%d6
    a22c:	6600 ff64      	bnew a192 <_malloc_r+0x5ee>
    a230:	7800           	moveq #0,%d4
    a232:	6000 ff64      	braw a198 <_malloc_r+0x5f4>
    a236:	7a54           	moveq #84,%d5
    a238:	ba84           	cmpl %d4,%d5
    a23a:	656c           	bcss a2a8 <_malloc_r+0x704>
    a23c:	2c00           	movel %d0,%d6
    a23e:	780c           	moveq #12,%d4
    a240:	e8ae           	lsrl %d4,%d6
    a242:	2046           	moveal %d6,%a0
    a244:	43e8 006e      	lea %a0@(110),%a1
    a248:	41e8 006f      	lea %a0@(111),%a0
    a24c:	2808           	movel %a0,%d4
    a24e:	e78c           	lsll #3,%d4
    a250:	2044           	moveal %d4,%a0
    a252:	d1fc 0000 bfc0 	addal #49088,%a0
    a258:	49e8 fff8      	lea %a0@(-8),%a4
    a25c:	2050           	moveal %a0@,%a0
    a25e:	b1cc           	cmpal %a4,%a0
    a260:	6600 fce0      	bnew 9f42 <_malloc_r+0x39e>
    a264:	6000 feb8      	braw a11e <_malloc_r+0x57a>
    a268:	0c83 0000 0154 	cmpil #340,%d3
    a26e:	626e           	bhis a2de <_malloc_r+0x73a>
    a270:	2602           	movel %d2,%d3
    a272:	780f           	moveq #15,%d4
    a274:	e8ab           	lsrl %d4,%d3
    a276:	387c 0077      	moveaw #119,%a4
    a27a:	d9c3           	addal %d3,%a4
    a27c:	7a78           	moveq #120,%d5
    a27e:	d685           	addl %d5,%d3
    a280:	2003           	movel %d3,%d0
    a282:	e788           	lsll #3,%d0
    a284:	2240           	moveal %d0,%a1
    a286:	d3fc 0000 bfc0 	addal #49088,%a1
    a28c:	41e9 fff8      	lea %a1@(-8),%a0
    a290:	2469 0004      	moveal %a1@(4),%a2
    a294:	b5c8           	cmpal %a0,%a2
    a296:	6600 f9e0      	bnew 9c78 <_malloc_r+0xd4>
    a29a:	6000 f9fc      	braw 9c98 <_malloc_r+0xf4>
    a29e:	23cc 0000 bfb8 	movel %a4,bfb8 <__malloc_sbrk_base>
    a2a4:	6000 febc      	braw a162 <_malloc_r+0x5be>
    a2a8:	0c84 0000 0154 	cmpil #340,%d4
    a2ae:	6200 0086      	bhiw a336 <_malloc_r+0x792>
    a2b2:	2a00           	movel %d0,%d5
    a2b4:	7c0f           	moveq #15,%d6
    a2b6:	ecad           	lsrl %d6,%d5
    a2b8:	2045           	moveal %d5,%a0
    a2ba:	43e8 0077      	lea %a0@(119),%a1
    a2be:	41e8 0078      	lea %a0@(120),%a0
    a2c2:	2808           	movel %a0,%d4
    a2c4:	e78c           	lsll #3,%d4
    a2c6:	2044           	moveal %d4,%a0
    a2c8:	d1fc 0000 bfc0 	addal #49088,%a0
    a2ce:	49e8 fff8      	lea %a0@(-8),%a4
    a2d2:	2050           	moveal %a0@,%a0
    a2d4:	b1cc           	cmpal %a4,%a0
    a2d6:	6600 fc6a      	bnew 9f42 <_malloc_r+0x39e>
    a2da:	6000 fe42      	braw a11e <_malloc_r+0x57a>
    a2de:	0c83 0000 0554 	cmpil #1364,%d3
    a2e4:	6200 0086      	bhiw a36c <_malloc_r+0x7c8>
    a2e8:	2602           	movel %d2,%d3
    a2ea:	4243           	clrw %d3
    a2ec:	4843           	swap %d3
    a2ee:	e44b           	lsrw #2,%d3
    a2f0:	387c 007c      	moveaw #124,%a4
    a2f4:	d9c3           	addal %d3,%a4
    a2f6:	7c7d           	moveq #125,%d6
    a2f8:	d686           	addl %d6,%d3
    a2fa:	2003           	movel %d3,%d0
    a2fc:	e788           	lsll #3,%d0
    a2fe:	2240           	moveal %d0,%a1
    a300:	d3fc 0000 bfc0 	addal #49088,%a1
    a306:	41e9 fff8      	lea %a1@(-8),%a0
    a30a:	2469 0004      	moveal %a1@(4),%a2
    a30e:	b5c8           	cmpal %a0,%a2
    a310:	6600 f966      	bnew 9c78 <_malloc_r+0xd4>
    a314:	6000 f982      	braw 9c98 <_malloc_r+0xf4>
    a318:	486a 0008      	pea %a2@(8)
    a31c:	2f0b           	movel %a3,%sp@-
    a31e:	4eb9 0000 9162 	jsr 9162 <_free_r>
    a324:	2055           	moveal %a5@,%a0
    a326:	2879 0000 bfc8 	moveal bfc8 <__malloc_av_+0x8>,%a4
    a32c:	262c 0004      	movel %a4@(4),%d3
    a330:	508f           	addql #8,%sp
    a332:	6000 fb4a      	braw 9e7e <_malloc_r+0x2da>
    a336:	0c84 0000 0554 	cmpil #1364,%d4
    a33c:	626a           	bhis a3a8 <_malloc_r+0x804>
    a33e:	2800           	movel %d0,%d4
    a340:	4244           	clrw %d4
    a342:	4844           	swap %d4
    a344:	e44c           	lsrw #2,%d4
    a346:	2044           	moveal %d4,%a0
    a348:	43e8 007c      	lea %a0@(124),%a1
    a34c:	41e8 007d      	lea %a0@(125),%a0
    a350:	2808           	movel %a0,%d4
    a352:	e78c           	lsll #3,%d4
    a354:	2044           	moveal %d4,%a0
    a356:	d1fc 0000 bfc0 	addal #49088,%a0
    a35c:	49e8 fff8      	lea %a0@(-8),%a4
    a360:	2050           	moveal %a0@,%a0
    a362:	b1cc           	cmpal %a4,%a0
    a364:	6600 fbdc      	bnew 9f42 <_malloc_r+0x39e>
    a368:	6000 fdb4      	braw a11e <_malloc_r+0x57a>
    a36c:	203c 0000 03f8 	movel #1016,%d0
    a372:	767f           	moveq #127,%d3
    a374:	387c 007e      	moveaw #126,%a4
    a378:	2240           	moveal %d0,%a1
    a37a:	d3fc 0000 bfc0 	addal #49088,%a1
    a380:	41e9 fff8      	lea %a1@(-8),%a0
    a384:	2469 0004      	moveal %a1@(4),%a2
    a388:	b5c8           	cmpal %a0,%a2
    a38a:	6600 f8ec      	bnew 9c78 <_malloc_r+0xd4>
    a38e:	6000 f908      	braw 9c98 <_malloc_r+0xf4>
    a392:	2605           	movel %d5,%d3
    a394:	2003           	movel %d3,%d0
    a396:	e788           	lsll #3,%d0
    a398:	2840           	moveal %d0,%a4
    a39a:	d9fc 0000 bfc0 	addal #49088,%a4
    a3a0:	224c           	moveal %a4,%a1
    a3a2:	2a03           	movel %d3,%d5
    a3a4:	6000 f9a0      	braw 9d46 <_malloc_r+0x1a2>
    a3a8:	283c 0000 03f8 	movel #1016,%d4
    a3ae:	327c 007e      	moveaw #126,%a1
    a3b2:	2044           	moveal %d4,%a0
    a3b4:	d1fc 0000 bfc0 	addal #49088,%a0
    a3ba:	49e8 fff8      	lea %a0@(-8),%a4
    a3be:	2050           	moveal %a0@,%a0
    a3c0:	b1cc           	cmpal %a4,%a0
    a3c2:	6600 fb7e      	bnew 9f42 <_malloc_r+0x39e>
    a3c6:	6000 fd56      	braw a11e <_malloc_r+0x57a>
    a3ca:	2004           	movel %d4,%d0
    a3cc:	4680           	notl %d0
    a3ce:	c0b9 0000 bfc4 	andl bfc4 <__malloc_av_+0x4>,%d0
    a3d4:	23c0 0000 bfc4 	movel %d0,bfc4 <__malloc_av_+0x4>
    a3da:	6000 fbf2      	braw 9fce <_malloc_r+0x42a>
	...

0000a3e0 <_mbtowc_r>:
    a3e0:	2279 0000 bf34 	moveal bf34 <__global_locale+0xe4>,%a1
    a3e6:	4ed1           	jmp %a1@

0000a3e8 <__ascii_mbtowc>:
    a3e8:	598f           	subql #4,%sp
    a3ea:	226f 000c      	moveal %sp@(12),%a1
    a3ee:	206f 0010      	moveal %sp@(16),%a0
    a3f2:	b2fc 0000      	cmpaw #0,%a1
    a3f6:	6720           	beqs a418 <__ascii_mbtowc+0x30>
    a3f8:	b0fc 0000      	cmpaw #0,%a0
    a3fc:	6722           	beqs a420 <__ascii_mbtowc+0x38>
    a3fe:	4aaf 0014      	tstl %sp@(20)
    a402:	6722           	beqs a426 <__ascii_mbtowc+0x3e>
    a404:	7000           	moveq #0,%d0
    a406:	1010           	moveb %a0@,%d0
    a408:	2280           	movel %d0,%a1@
    a40a:	4a10           	tstb %a0@
    a40c:	56c0           	sne %d0
    a40e:	4880           	extw %d0
    a410:	48c0           	extl %d0
    a412:	4480           	negl %d0
    a414:	588f           	addql #4,%sp
    a416:	4e75           	rts
    a418:	224f           	moveal %sp,%a1
    a41a:	b0fc 0000      	cmpaw #0,%a0
    a41e:	66de           	bnes a3fe <__ascii_mbtowc+0x16>
    a420:	7000           	moveq #0,%d0
    a422:	588f           	addql #4,%sp
    a424:	4e75           	rts
    a426:	70fe           	moveq #-2,%d0
    a428:	588f           	addql #4,%sp
    a42a:	4e75           	rts

0000a42c <memchr>:
    a42c:	48e7 3820      	moveml %d2-%d4/%a2,%sp@-
    a430:	202f 0014      	movel %sp@(20),%d0
    a434:	142f 001b      	moveb %sp@(27),%d2
    a438:	2200           	movel %d0,%d1
    a43a:	7603           	moveq #3,%d3
    a43c:	c680           	andl %d0,%d3
    a43e:	206f 001c      	moveal %sp@(28),%a0
    a442:	672a           	beqs a46e <memchr+0x42>
    a444:	5388           	subql #1,%a0
    a446:	4aaf 001c      	tstl %sp@(28)
    a44a:	6716           	beqs a462 <memchr+0x36>
    a44c:	2241           	moveal %d1,%a1
    a44e:	5281           	addql #1,%d1
    a450:	b411           	cmpb %a1@,%d2
    a452:	6710           	beqs a464 <memchr+0x38>
    a454:	7003           	moveq #3,%d0
    a456:	c081           	andl %d1,%d0
    a458:	6712           	beqs a46c <memchr+0x40>
    a45a:	5388           	subql #1,%a0
    a45c:	70ff           	moveq #-1,%d0
    a45e:	b088           	cmpl %a0,%d0
    a460:	66ea           	bnes a44c <memchr+0x20>
    a462:	93c9           	subal %a1,%a1
    a464:	2009           	movel %a1,%d0
    a466:	4cdf 041c      	moveml %sp@+,%d2-%d4/%a2
    a46a:	4e75           	rts
    a46c:	2001           	movel %d1,%d0
    a46e:	7203           	moveq #3,%d1
    a470:	b288           	cmpl %a0,%d1
    a472:	6518           	bcss a48c <memchr+0x60>
    a474:	b0fc 0000      	cmpaw #0,%a0
    a478:	67e8           	beqs a462 <memchr+0x36>
    a47a:	2440           	moveal %d0,%a2
    a47c:	d088           	addl %a0,%d0
    a47e:	224a           	moveal %a2,%a1
    a480:	b41a           	cmpb %a2@+,%d2
    a482:	67e0           	beqs a464 <memchr+0x38>
    a484:	b08a           	cmpl %a2,%d0
    a486:	66f6           	bnes a47e <memchr+0x52>
    a488:	93c9           	subal %a1,%a1
    a48a:	60d8           	bras a464 <memchr+0x38>
    a48c:	7200           	moveq #0,%d1
    a48e:	4601           	notb %d1
    a490:	c2af 0018      	andl %sp@(24),%d1
    a494:	2801           	movel %d1,%d4
    a496:	e18c           	lsll #8,%d4
    a498:	d881           	addl %d1,%d4
    a49a:	2204           	movel %d4,%d1
    a49c:	4841           	swap %d1
    a49e:	4241           	clrw %d1
    a4a0:	d881           	addl %d1,%d4
    a4a2:	2240           	moveal %d0,%a1
    a4a4:	2009           	movel %a1,%d0
    a4a6:	2619           	movel %a1@+,%d3
    a4a8:	b983           	eorl %d4,%d3
    a4aa:	2203           	movel %d3,%d1
    a4ac:	0681 fefe feff 	addil #-16843009,%d1
    a4b2:	4683           	notl %d3
    a4b4:	c283           	andl %d3,%d1
    a4b6:	0281 8080 8080 	andil #-2139062144,%d1
    a4bc:	66b6           	bnes a474 <memchr+0x48>
    a4be:	5988           	subql #4,%a0
    a4c0:	7003           	moveq #3,%d0
    a4c2:	b088           	cmpl %a0,%d0
    a4c4:	65de           	bcss a4a4 <memchr+0x78>
    a4c6:	2009           	movel %a1,%d0
    a4c8:	60aa           	bras a474 <memchr+0x48>
	...

0000a4cc <memcpy>:
    a4cc:	48e7 3038      	moveml %d2-%d3/%a2-%a4,%sp@-
    a4d0:	202f 0018      	movel %sp@(24),%d0
    a4d4:	206f 001c      	moveal %sp@(28),%a0
    a4d8:	222f 0020      	movel %sp@(32),%d1
    a4dc:	740f           	moveq #15,%d2
    a4de:	b481           	cmpl %d1,%d2
    a4e0:	651a           	bcss a4fc <memcpy+0x30>
    a4e2:	2240           	moveal %d0,%a1
    a4e4:	2401           	movel %d1,%d2
    a4e6:	5382           	subql #1,%d2
    a4e8:	4a81           	tstl %d1
    a4ea:	670a           	beqs a4f6 <memcpy+0x2a>
    a4ec:	45f0 2801      	lea %a0@(0000000000000001,%d2:l),%a2
    a4f0:	12d8           	moveb %a0@+,%a1@+
    a4f2:	b5c8           	cmpal %a0,%a2
    a4f4:	66fa           	bnes a4f0 <memcpy+0x24>
    a4f6:	4cdf 1c0c      	moveml %sp@+,%d2-%d3/%a2-%a4
    a4fa:	4e75           	rts
    a4fc:	2408           	movel %a0,%d2
    a4fe:	8480           	orl %d0,%d2
    a500:	7603           	moveq #3,%d3
    a502:	c483           	andl %d3,%d2
    a504:	6676           	bnes a57c <memcpy+0xb0>
    a506:	387c fff0      	moveaw #-16,%a4
    a50a:	d9c1           	addal %d1,%a4
    a50c:	240c           	movel %a4,%d2
    a50e:	76f0           	moveq #-16,%d3
    a510:	c483           	andl %d3,%d2
    a512:	2842           	moveal %d2,%a4
    a514:	49ec 0010      	lea %a4@(16),%a4
    a518:	43f4 0800      	lea %a4@(0000000000000000,%d0:l),%a1
    a51c:	2648           	moveal %a0,%a3
    a51e:	2440           	moveal %d0,%a2
    a520:	2493           	movel %a3@,%a2@
    a522:	256b 0004 0004 	movel %a3@(4),%a2@(4)
    a528:	256b 0008 0008 	movel %a3@(8),%a2@(8)
    a52e:	47eb 0010      	lea %a3@(16),%a3
    a532:	45ea 0010      	lea %a2@(16),%a2
    a536:	256b fffc fffc 	movel %a3@(-4),%a2@(-4)
    a53c:	b3ca           	cmpal %a2,%a1
    a53e:	66e0           	bnes a520 <memcpy+0x54>
    a540:	d1cc           	addal %a4,%a0
    a542:	740f           	moveq #15,%d2
    a544:	c481           	andl %d1,%d2
    a546:	760c           	moveq #12,%d3
    a548:	c681           	andl %d1,%d3
    a54a:	673e           	beqs a58a <memcpy+0xbe>
    a54c:	2649           	moveal %a1,%a3
    a54e:	2448           	moveal %a0,%a2
    a550:	26da           	movel %a2@+,%a3@+
    a552:	2842           	moveal %d2,%a4
    a554:	99ca           	subal %a2,%a4
    a556:	49f0 c800      	lea %a0@(0000000000000000,%a4:l),%a4
    a55a:	7603           	moveq #3,%d3
    a55c:	b68c           	cmpl %a4,%d3
    a55e:	65f0           	bcss a550 <memcpy+0x84>
    a560:	c283           	andl %d3,%d1
    a562:	5982           	subql #4,%d2
    a564:	76fc           	moveq #-4,%d3
    a566:	c483           	andl %d3,%d2
    a568:	5882           	addql #4,%d2
    a56a:	d3c2           	addal %d2,%a1
    a56c:	d1c2           	addal %d2,%a0
    a56e:	2401           	movel %d1,%d2
    a570:	5382           	subql #1,%d2
    a572:	4a81           	tstl %d1
    a574:	6600 ff76      	bnew a4ec <memcpy+0x20>
    a578:	6000 ff7c      	braw a4f6 <memcpy+0x2a>
    a57c:	2401           	movel %d1,%d2
    a57e:	5382           	subql #1,%d2
    a580:	2240           	moveal %d0,%a1
    a582:	45f0 2801      	lea %a0@(0000000000000001,%d2:l),%a2
    a586:	6000 ff68      	braw a4f0 <memcpy+0x24>
    a58a:	2202           	movel %d2,%d1
    a58c:	2401           	movel %d1,%d2
    a58e:	5382           	subql #1,%d2
    a590:	4a81           	tstl %d1
    a592:	6600 ff58      	bnew a4ec <memcpy+0x20>
    a596:	6000 ff5e      	braw a4f6 <memcpy+0x2a>
	...

0000a59c <memmove>:
    a59c:	48e7 3038      	moveml %d2-%d3/%a2-%a4,%sp@-
    a5a0:	202f 0018      	movel %sp@(24),%d0
    a5a4:	206f 001c      	moveal %sp@(28),%a0
    a5a8:	222f 0020      	movel %sp@(32),%d1
    a5ac:	b1c0           	cmpal %d0,%a0
    a5ae:	6420           	bccs a5d0 <memmove+0x34>
    a5b0:	43f0 1800      	lea %a0@(0000000000000000,%d1:l),%a1
    a5b4:	b089           	cmpl %a1,%d0
    a5b6:	6418           	bccs a5d0 <memmove+0x34>
    a5b8:	4a81           	tstl %d1
    a5ba:	670e           	beqs a5ca <memmove+0x2e>
    a5bc:	2640           	moveal %d0,%a3
    a5be:	45f3 18ff      	lea %a3@(ffffffffffffffff,%d1:l),%a2
    a5c2:	14a1           	moveb %a1@-,%a2@
    a5c4:	538a           	subql #1,%a2
    a5c6:	b3c8           	cmpal %a0,%a1
    a5c8:	66f8           	bnes a5c2 <memmove+0x26>
    a5ca:	4cdf 1c0c      	moveml %sp@+,%d2-%d3/%a2-%a4
    a5ce:	4e75           	rts
    a5d0:	740f           	moveq #15,%d2
    a5d2:	b481           	cmpl %d1,%d2
    a5d4:	6400 0096      	bccw a66c <memmove+0xd0>
    a5d8:	2408           	movel %a0,%d2
    a5da:	8480           	orl %d0,%d2
    a5dc:	7603           	moveq #3,%d3
    a5de:	c483           	andl %d3,%d2
    a5e0:	6600 0098      	bnew a67a <memmove+0xde>
    a5e4:	387c fff0      	moveaw #-16,%a4
    a5e8:	d9c1           	addal %d1,%a4
    a5ea:	240c           	movel %a4,%d2
    a5ec:	76f0           	moveq #-16,%d3
    a5ee:	c483           	andl %d3,%d2
    a5f0:	2842           	moveal %d2,%a4
    a5f2:	49ec 0010      	lea %a4@(16),%a4
    a5f6:	43f4 0800      	lea %a4@(0000000000000000,%d0:l),%a1
    a5fa:	2648           	moveal %a0,%a3
    a5fc:	2440           	moveal %d0,%a2
    a5fe:	2493           	movel %a3@,%a2@
    a600:	256b 0004 0004 	movel %a3@(4),%a2@(4)
    a606:	256b 0008 0008 	movel %a3@(8),%a2@(8)
    a60c:	47eb 0010      	lea %a3@(16),%a3
    a610:	45ea 0010      	lea %a2@(16),%a2
    a614:	256b fffc fffc 	movel %a3@(-4),%a2@(-4)
    a61a:	b3ca           	cmpal %a2,%a1
    a61c:	66e0           	bnes a5fe <memmove+0x62>
    a61e:	d1cc           	addal %a4,%a0
    a620:	740f           	moveq #15,%d2
    a622:	c481           	andl %d1,%d2
    a624:	760c           	moveq #12,%d3
    a626:	c681           	andl %d1,%d3
    a628:	675c           	beqs a686 <memmove+0xea>
    a62a:	2649           	moveal %a1,%a3
    a62c:	2448           	moveal %a0,%a2
    a62e:	26da           	movel %a2@+,%a3@+
    a630:	2842           	moveal %d2,%a4
    a632:	99ca           	subal %a2,%a4
    a634:	49f0 c800      	lea %a0@(0000000000000000,%a4:l),%a4
    a638:	7603           	moveq #3,%d3
    a63a:	b68c           	cmpl %a4,%d3
    a63c:	65f0           	bcss a62e <memmove+0x92>
    a63e:	c283           	andl %d3,%d1
    a640:	5982           	subql #4,%d2
    a642:	76fc           	moveq #-4,%d3
    a644:	c483           	andl %d3,%d2
    a646:	5882           	addql #4,%d2
    a648:	d3c2           	addal %d2,%a1
    a64a:	d1c2           	addal %d2,%a0
    a64c:	2401           	movel %d1,%d2
    a64e:	5382           	subql #1,%d2
    a650:	4a81           	tstl %d1
    a652:	6700 ff76      	beqw a5ca <memmove+0x2e>
    a656:	45f0 2801      	lea %a0@(0000000000000001,%d2:l),%a2
    a65a:	12d8           	moveb %a0@+,%a1@+
    a65c:	b5c8           	cmpal %a0,%a2
    a65e:	6700 ff6a      	beqw a5ca <memmove+0x2e>
    a662:	12d8           	moveb %a0@+,%a1@+
    a664:	b5c8           	cmpal %a0,%a2
    a666:	66f2           	bnes a65a <memmove+0xbe>
    a668:	6000 ff60      	braw a5ca <memmove+0x2e>
    a66c:	2240           	moveal %d0,%a1
    a66e:	2401           	movel %d1,%d2
    a670:	5382           	subql #1,%d2
    a672:	4a81           	tstl %d1
    a674:	66e0           	bnes a656 <memmove+0xba>
    a676:	6000 ff52      	braw a5ca <memmove+0x2e>
    a67a:	2401           	movel %d1,%d2
    a67c:	5382           	subql #1,%d2
    a67e:	2240           	moveal %d0,%a1
    a680:	45f0 2801      	lea %a0@(0000000000000001,%d2:l),%a2
    a684:	60d4           	bras a65a <memmove+0xbe>
    a686:	2202           	movel %d2,%d1
    a688:	2401           	movel %d1,%d2
    a68a:	5382           	subql #1,%d2
    a68c:	4a81           	tstl %d1
    a68e:	66c6           	bnes a656 <memmove+0xba>
    a690:	6000 ff38      	braw a5ca <memmove+0x2e>

0000a694 <memset>:
    a694:	48e7 3820      	moveml %d2-%d4/%a2,%sp@-
    a698:	202f 0014      	movel %sp@(20),%d0
    a69c:	7203           	moveq #3,%d1
    a69e:	c280           	andl %d0,%d1
    a6a0:	672a           	beqs a6cc <memset+0x38>
    a6a2:	222f 001c      	movel %sp@(28),%d1
    a6a6:	5381           	subql #1,%d1
    a6a8:	4aaf 001c      	tstl %sp@(28)
    a6ac:	6718           	beqs a6c6 <memset+0x32>
    a6ae:	162f 001b      	moveb %sp@(27),%d3
    a6b2:	2040           	moveal %d0,%a0
    a6b4:	10c3           	moveb %d3,%a0@+
    a6b6:	2408           	movel %a0,%d2
    a6b8:	7803           	moveq #3,%d4
    a6ba:	c484           	andl %d4,%d2
    a6bc:	6714           	beqs a6d2 <memset+0x3e>
    a6be:	5381           	subql #1,%d1
    a6c0:	74ff           	moveq #-1,%d2
    a6c2:	b481           	cmpl %d1,%d2
    a6c4:	66ee           	bnes a6b4 <memset+0x20>
    a6c6:	4cdf 041c      	moveml %sp@+,%d2-%d4/%a2
    a6ca:	4e75           	rts
    a6cc:	2040           	moveal %d0,%a0
    a6ce:	222f 001c      	movel %sp@(28),%d1
    a6d2:	7403           	moveq #3,%d2
    a6d4:	b481           	cmpl %d1,%d2
    a6d6:	646c           	bccs a744 <memset+0xb0>
    a6d8:	7600           	moveq #0,%d3
    a6da:	4603           	notb %d3
    a6dc:	c6af 0018      	andl %sp@(24),%d3
    a6e0:	2403           	movel %d3,%d2
    a6e2:	e18a           	lsll #8,%d2
    a6e4:	d483           	addl %d3,%d2
    a6e6:	2602           	movel %d2,%d3
    a6e8:	4843           	swap %d3
    a6ea:	4243           	clrw %d3
    a6ec:	2242           	moveal %d2,%a1
    a6ee:	d3c3           	addal %d3,%a1
    a6f0:	760f           	moveq #15,%d3
    a6f2:	b681           	cmpl %d1,%d3
    a6f4:	6474           	bccs a76a <memset+0xd6>
    a6f6:	74f0           	moveq #-16,%d2
    a6f8:	d481           	addl %d1,%d2
    a6fa:	78f0           	moveq #-16,%d4
    a6fc:	c484           	andl %d4,%d2
    a6fe:	45f0 2810      	lea %a0@(0000000000000010,%d2:l),%a2
    a702:	2089           	movel %a1,%a0@
    a704:	2149 0004      	movel %a1,%a0@(4)
    a708:	2149 0008      	movel %a1,%a0@(8)
    a70c:	41e8 0010      	lea %a0@(16),%a0
    a710:	2149 fffc      	movel %a1,%a0@(-4)
    a714:	b5c8           	cmpal %a0,%a2
    a716:	66ea           	bnes a702 <memset+0x6e>
    a718:	760f           	moveq #15,%d3
    a71a:	c681           	andl %d1,%d3
    a71c:	740c           	moveq #12,%d2
    a71e:	c282           	andl %d2,%d1
    a720:	6740           	beqs a762 <memset+0xce>
    a722:	204a           	moveal %a2,%a0
    a724:	240a           	movel %a2,%d2
    a726:	d483           	addl %d3,%d2
    a728:	20c9           	movel %a1,%a0@+
    a72a:	2202           	movel %d2,%d1
    a72c:	9288           	subl %a0,%d1
    a72e:	7803           	moveq #3,%d4
    a730:	b881           	cmpl %d1,%d4
    a732:	65f4           	bcss a728 <memset+0x94>
    a734:	2203           	movel %d3,%d1
    a736:	5981           	subql #4,%d1
    a738:	74fc           	moveq #-4,%d2
    a73a:	c282           	andl %d2,%d1
    a73c:	41f2 1804      	lea %a2@(0000000000000004,%d1:l),%a0
    a740:	7203           	moveq #3,%d1
    a742:	c283           	andl %d3,%d1
    a744:	4a81           	tstl %d1
    a746:	6700 ff7e      	beqw a6c6 <memset+0x32>
    a74a:	142f 001b      	moveb %sp@(27),%d2
    a74e:	d288           	addl %a0,%d1
    a750:	10c2           	moveb %d2,%a0@+
    a752:	b1c1           	cmpal %d1,%a0
    a754:	6700 ff70      	beqw a6c6 <memset+0x32>
    a758:	10c2           	moveb %d2,%a0@+
    a75a:	b1c1           	cmpal %d1,%a0
    a75c:	66f2           	bnes a750 <memset+0xbc>
    a75e:	6000 ff66      	braw a6c6 <memset+0x32>
    a762:	2203           	movel %d3,%d1
    a764:	66e4           	bnes a74a <memset+0xb6>
    a766:	6000 ff5e      	braw a6c6 <memset+0x32>
    a76a:	2448           	moveal %a0,%a2
    a76c:	2601           	movel %d1,%d3
    a76e:	204a           	moveal %a2,%a0
    a770:	240a           	movel %a2,%d2
    a772:	d483           	addl %d3,%d2
    a774:	60b2           	bras a728 <memset+0x94>
	...

0000a778 <__malloc_lock>:
    a778:	4e75           	rts

0000a77a <__malloc_unlock>:
    a77a:	4e75           	rts

0000a77c <_printf_common>:
    a77c:	48e7 3c3c      	moveml %d2-%d5/%a2-%a5,%sp@-
    a780:	262f 0024      	movel %sp@(36),%d3
    a784:	246f 0028      	moveal %sp@(40),%a2
    a788:	286f 002c      	moveal %sp@(44),%a4
    a78c:	282f 0030      	movel %sp@(48),%d4
    a790:	266f 0034      	moveal %sp@(52),%a3
    a794:	202a 0008      	movel %a2@(8),%d0
    a798:	222a 0010      	movel %a2@(16),%d1
    a79c:	b081           	cmpl %d1,%d0
    a79e:	6f02           	bles a7a2 <_printf_common+0x26>
    a7a0:	2200           	movel %d0,%d1
    a7a2:	2881           	movel %d1,%a4@
    a7a4:	102a 0043      	moveb %a2@(67),%d0
    a7a8:	6704           	beqs a7ae <_printf_common+0x32>
    a7aa:	5281           	addql #1,%d1
    a7ac:	2881           	movel %d1,%a4@
    a7ae:	2212           	movel %a2@,%d1
    a7b0:	0801 0005      	btst #5,%d1
    a7b4:	6700 00c8      	beqw a87e <_printf_common+0x102>
    a7b8:	2014           	movel %a4@,%d0
    a7ba:	5480           	addql #2,%d0
    a7bc:	2880           	movel %d0,%a4@
    a7be:	2212           	movel %a2@,%d1
    a7c0:	2401           	movel %d1,%d2
    a7c2:	7a06           	moveq #6,%d5
    a7c4:	ca81           	andl %d1,%d5
    a7c6:	6632           	bnes a7fa <_printf_common+0x7e>
    a7c8:	2401           	movel %d1,%d2
    a7ca:	b0aa 000c      	cmpl %a2@(12),%d0
    a7ce:	6c2a           	bges a7fa <_printf_common+0x7e>
    a7d0:	4bea 0019      	lea %a2@(25),%a5
    a7d4:	7400           	moveq #0,%d2
    a7d6:	4878 0001      	pea 1 <_start-0x7fff>
    a7da:	2f0d           	movel %a5,%sp@-
    a7dc:	2f04           	movel %d4,%sp@-
    a7de:	2f03           	movel %d3,%sp@-
    a7e0:	4e93           	jsr %a3@
    a7e2:	4fef 0010      	lea %sp@(16),%sp
    a7e6:	5280           	addql #1,%d0
    a7e8:	6700 008c      	beqw a876 <_printf_common+0xfa>
    a7ec:	5282           	addql #1,%d2
    a7ee:	202a 000c      	movel %a2@(12),%d0
    a7f2:	9094           	subl %a4@,%d0
    a7f4:	b480           	cmpl %d0,%d2
    a7f6:	6dde           	blts a7d6 <_printf_common+0x5a>
    a7f8:	2412           	movel %a2@,%d2
    a7fa:	4a2a 0043      	tstb %a2@(67)
    a7fe:	56c0           	sne %d0
    a800:	4880           	extw %d0
    a802:	48c0           	extl %d0
    a804:	4480           	negl %d0
    a806:	0802 0005      	btst #5,%d2
    a80a:	670e           	beqs a81a <_printf_common+0x9e>
    a80c:	15bc 0030 0843 	moveb #48,%a2@(0000000000000043,%d0:l)
    a812:	15aa 0045 0844 	moveb %a2@(69),%a2@(0000000000000044,%d0:l)
    a818:	5480           	addql #2,%d0
    a81a:	2f00           	movel %d0,%sp@-
    a81c:	486a 0043      	pea %a2@(67)
    a820:	2f04           	movel %d4,%sp@-
    a822:	2f03           	movel %d3,%sp@-
    a824:	4e93           	jsr %a3@
    a826:	4fef 0010      	lea %sp@(16),%sp
    a82a:	5280           	addql #1,%d0
    a82c:	6748           	beqs a876 <_printf_common+0xfa>
    a82e:	222a 000c      	movel %a2@(12),%d1
    a832:	2254           	moveal %a4@,%a1
    a834:	202a 0008      	movel %a2@(8),%d0
    a838:	206a 0010      	moveal %a2@(16),%a0
    a83c:	7406           	moveq #6,%d2
    a83e:	c492           	andl %a2@,%d2
    a840:	5982           	subql #4,%d2
    a842:	674c           	beqs a890 <_printf_common+0x114>
    a844:	b1c0           	cmpal %d0,%a0
    a846:	6c26           	bges a86e <_printf_common+0xf2>
    a848:	99cc           	subal %a4,%a4
    a84a:	9088           	subl %a0,%d0
    a84c:	d9c0           	addal %d0,%a4
    a84e:	45ea 001a      	lea %a2@(26),%a2
    a852:	7400           	moveq #0,%d2
    a854:	4878 0001      	pea 1 <_start-0x7fff>
    a858:	2f0a           	movel %a2,%sp@-
    a85a:	2f04           	movel %d4,%sp@-
    a85c:	2f03           	movel %d3,%sp@-
    a85e:	4e93           	jsr %a3@
    a860:	4fef 0010      	lea %sp@(16),%sp
    a864:	5280           	addql #1,%d0
    a866:	670e           	beqs a876 <_printf_common+0xfa>
    a868:	5282           	addql #1,%d2
    a86a:	b9c2           	cmpal %d2,%a4
    a86c:	6ee6           	bgts a854 <_printf_common+0xd8>
    a86e:	7000           	moveq #0,%d0
    a870:	4cdf 3c3c      	moveml %sp@+,%d2-%d5/%a2-%a5
    a874:	4e75           	rts
    a876:	70ff           	moveq #-1,%d0
    a878:	4cdf 3c3c      	moveml %sp@+,%d2-%d5/%a2-%a5
    a87c:	4e75           	rts
    a87e:	7406           	moveq #6,%d2
    a880:	c481           	andl %d1,%d2
    a882:	6722           	beqs a8a6 <_printf_common+0x12a>
    a884:	4a00           	tstb %d0
    a886:	56c0           	sne %d0
    a888:	4880           	extw %d0
    a88a:	48c0           	extl %d0
    a88c:	4480           	negl %d0
    a88e:	608a           	bras a81a <_printf_common+0x9e>
    a890:	9289           	subl %a1,%d1
    a892:	2841           	moveal %d1,%a4
    a894:	6b20           	bmis a8b6 <_printf_common+0x13a>
    a896:	b1c0           	cmpal %d0,%a0
    a898:	6db0           	blts a84a <_printf_common+0xce>
    a89a:	4a81           	tstl %d1
    a89c:	6fd0           	bles a86e <_printf_common+0xf2>
    a89e:	45ea 001a      	lea %a2@(26),%a2
    a8a2:	7400           	moveq #0,%d2
    a8a4:	60ae           	bras a854 <_printf_common+0xd8>
    a8a6:	2014           	movel %a4@,%d0
    a8a8:	2401           	movel %d1,%d2
    a8aa:	b0aa 000c      	cmpl %a2@(12),%d0
    a8ae:	6d00 ff20      	bltw a7d0 <_printf_common+0x54>
    a8b2:	6000 ff46      	braw a7fa <_printf_common+0x7e>
    a8b6:	99cc           	subal %a4,%a4
    a8b8:	b1c0           	cmpal %d0,%a0
    a8ba:	6cde           	bges a89a <_printf_common+0x11e>
    a8bc:	608c           	bras a84a <_printf_common+0xce>

0000a8be <_printf_i>:
    a8be:	4e56 fff4      	linkw %fp,#-12
    a8c2:	48e7 3f3c      	moveml %d2-%d7/%a2-%a5,%sp@-
    a8c6:	262e 0008      	movel %fp@(8),%d3
    a8ca:	246e 000c      	moveal %fp@(12),%a2
    a8ce:	282e 0010      	movel %fp@(16),%d4
    a8d2:	286e 0014      	moveal %fp@(20),%a4
    a8d6:	206e 0018      	moveal %fp@(24),%a0
    a8da:	43ea 0043      	lea %a2@(67),%a1
    a8de:	2d49 fff4      	movel %a1,%fp@(-12)
    a8e2:	142a 0018      	moveb %a2@(24),%d2
    a8e6:	677e           	beqs a966 <_printf_i+0xa8>
    a8e8:	1002           	moveb %d2,%d0
    a8ea:	0600 ffa8      	addib #-88,%d0
    a8ee:	0c00 0020      	cmpib #32,%d0
    a8f2:	6200 00fe      	bhiw a9f2 <_printf_i+0x134>
    a8f6:	0280 0000 00ff 	andil #255,%d0
    a8fc:	d080           	addl %d0,%d0
    a8fe:	303b 0806      	movew %pc@(a906 <_printf_i+0x48>,%d0:l),%d0
    a902:	4efb 0002      	jmp %pc@(a906 <_printf_i+0x48>,%d0:w)
    a906:	02d0           	.short 0x02d0
    a908:	00ec           	.short 0x00ec
    a90a:	00ec           	.short 0x00ec
    a90c:	00ec           	.short 0x00ec
    a90e:	00ec           	.short 0x00ec
    a910:	00ec           	.short 0x00ec
    a912:	00ec           	.short 0x00ec
    a914:	00ec           	.short 0x00ec
    a916:	00ec           	.short 0x00ec
    a918:	00ec           	.short 0x00ec
    a91a:	00ec           	.short 0x00ec
    a91c:	01fa           	.short 0x01fa
    a91e:	0102           	btst %d0,%d2
    a920:	00ec           	.short 0x00ec
    a922:	00ec           	.short 0x00ec
    a924:	00ec           	.short 0x00ec
    a926:	00ec           	.short 0x00ec
    a928:	0102           	btst %d0,%d2
    a92a:	00ec           	.short 0x00ec
    a92c:	00ec           	.short 0x00ec
    a92e:	00ec           	.short 0x00ec
    a930:	00ec           	.short 0x00ec
    a932:	0042 0168      	oriw #360,%d2
    a936:	0252 00ec      	andiw #236,%a2@
    a93a:	00ec           	.short 0x00ec
    a93c:	021c 00ec      	andib #-20,%a4@+
    a940:	0168 00ec      	bchg %d0,%a0@(236)
    a944:	00ec           	.short 0x00ec
    a946:	02e0           	.short 0x02e0
    a948:	2012           	movel %a2@,%d0
    a94a:	222a 0014      	movel %a2@(20),%d1
    a94e:	2250           	moveal %a0@,%a1
    a950:	2409           	movel %a1,%d2
    a952:	5882           	addql #4,%d2
    a954:	2082           	movel %d2,%a0@
    a956:	2051           	moveal %a1@,%a0
    a958:	4a00           	tstb %d0
    a95a:	6b08           	bmis a964 <_printf_i+0xa6>
    a95c:	0800 0006      	btst #6,%d0
    a960:	6600 029e      	bnew ac00 <_printf_i+0x342>
    a964:	2081           	movel %d1,%a0@
    a966:	42aa 0010      	clrl %a2@(16)
    a96a:	266e fff4      	moveal %fp@(-12),%a3
    a96e:	2f0c           	movel %a4,%sp@-
    a970:	2f04           	movel %d4,%sp@-
    a972:	486e fffc      	pea %fp@(-4)
    a976:	2f0a           	movel %a2,%sp@-
    a978:	2f03           	movel %d3,%sp@-
    a97a:	4eba fe00      	jsr %pc@(a77c <_printf_common>)
    a97e:	4fef 0014      	lea %sp@(20),%sp
    a982:	5280           	addql #1,%d0
    a984:	6760           	beqs a9e6 <_printf_i+0x128>
    a986:	2f2a 0010      	movel %a2@(16),%sp@-
    a98a:	2f0b           	movel %a3,%sp@-
    a98c:	2f04           	movel %d4,%sp@-
    a98e:	2f03           	movel %d3,%sp@-
    a990:	4e94           	jsr %a4@
    a992:	4fef 0010      	lea %sp@(16),%sp
    a996:	5280           	addql #1,%d0
    a998:	674c           	beqs a9e6 <_printf_i+0x128>
    a99a:	202a 000c      	movel %a2@(12),%d0
    a99e:	2a2e fffc      	movel %fp@(-4),%d5
    a9a2:	082a 0001 0003 	btst #1,%a2@(3)
    a9a8:	672c           	beqs a9d6 <_printf_i+0x118>
    a9aa:	ba80           	cmpl %d0,%d5
    a9ac:	6c28           	bges a9d6 <_printf_i+0x118>
    a9ae:	47ea 0019      	lea %a2@(25),%a3
    a9b2:	7400           	moveq #0,%d2
    a9b4:	4878 0001      	pea 1 <_start-0x7fff>
    a9b8:	2f0b           	movel %a3,%sp@-
    a9ba:	2f04           	movel %d4,%sp@-
    a9bc:	2f03           	movel %d3,%sp@-
    a9be:	4e94           	jsr %a4@
    a9c0:	4fef 0010      	lea %sp@(16),%sp
    a9c4:	5280           	addql #1,%d0
    a9c6:	671e           	beqs a9e6 <_printf_i+0x128>
    a9c8:	5282           	addql #1,%d2
    a9ca:	202a 000c      	movel %a2@(12),%d0
    a9ce:	2200           	movel %d0,%d1
    a9d0:	9285           	subl %d5,%d1
    a9d2:	b481           	cmpl %d1,%d2
    a9d4:	6dde           	blts a9b4 <_printf_i+0xf6>
    a9d6:	ba80           	cmpl %d0,%d5
    a9d8:	6f02           	bles a9dc <_printf_i+0x11e>
    a9da:	2005           	movel %d5,%d0
    a9dc:	4cee 3cfc ffcc 	moveml %fp@(-52),%d2-%d7/%a2-%a5
    a9e2:	4e5e           	unlk %fp
    a9e4:	4e75           	rts
    a9e6:	70ff           	moveq #-1,%d0
    a9e8:	4cee 3cfc ffcc 	moveml %fp@(-52),%d2-%d7/%a2-%a5
    a9ee:	4e5e           	unlk %fp
    a9f0:	4e75           	rts
    a9f2:	47ea 0042      	lea %a2@(66),%a3
    a9f6:	1542 0042      	moveb %d2,%a2@(66)
    a9fa:	7001           	moveq #1,%d0
    a9fc:	2540 0010      	movel %d0,%a2@(16)
    aa00:	422a 0043      	clrb %a2@(67)
    aa04:	6000 ff68      	braw a96e <_printf_i+0xb0>
    aa08:	2412           	movel %a2@,%d2
    aa0a:	2250           	moveal %a0@,%a1
    aa0c:	2009           	movel %a1,%d0
    aa0e:	5880           	addql #4,%d0
    aa10:	2080           	movel %d0,%a0@
    aa12:	4a02           	tstb %d2
    aa14:	6b00 01e2      	bmiw abf8 <_printf_i+0x33a>
    aa18:	0802 0006      	btst #6,%d2
    aa1c:	6700 01da      	beqw abf8 <_printf_i+0x33a>
    aa20:	2e11           	movel %a1@,%d7
    aa22:	48c7           	extl %d7
    aa24:	2047           	moveal %d7,%a0
    aa26:	202a 0004      	movel %a2@(4),%d0
    aa2a:	b0fc 0000      	cmpaw #0,%a0
    aa2e:	6d00 01e8      	bltw ac18 <_printf_i+0x35a>
    aa32:	4bf9 0000 ba06 	lea ba06 <_ctype_+0x11c>,%a5
    aa38:	720a           	moveq #10,%d1
    aa3a:	2d41 fff8      	movel %d1,%fp@(-8)
    aa3e:	2540 0008      	movel %d0,%a2@(8)
    aa42:	6b64           	bmis aaa8 <_printf_i+0x1ea>
    aa44:	72fb           	moveq #-5,%d1
    aa46:	c392           	andl %d1,%a2@
    aa48:	4a87           	tstl %d7
    aa4a:	665c           	bnes aaa8 <_printf_i+0x1ea>
    aa4c:	4a80           	tstl %d0
    aa4e:	6600 0210      	bnew ac60 <_printf_i+0x3a2>
    aa52:	266e fff4      	moveal %fp@(-12),%a3
    aa56:	7008           	moveq #8,%d0
    aa58:	b0ae fff8      	cmpl %fp@(-8),%d0
    aa5c:	6700 014c      	beqw abaa <_printf_i+0x2ec>
    aa60:	206e fff4      	moveal %fp@(-12),%a0
    aa64:	91cb           	subal %a3,%a0
    aa66:	2548 0010      	movel %a0,%a2@(16)
    aa6a:	6000 ff02      	braw a96e <_printf_i+0xb0>
    aa6e:	2012           	movel %a2@,%d0
    aa70:	2250           	moveal %a0@,%a1
    aa72:	2209           	movel %a1,%d1
    aa74:	5881           	addql #4,%d1
    aa76:	2081           	movel %d1,%a0@
    aa78:	2e11           	movel %a1@,%d7
    aa7a:	4a00           	tstb %d0
    aa7c:	6b08           	bmis aa86 <_printf_i+0x1c8>
    aa7e:	0800 0006      	btst #6,%d0
    aa82:	6600 018a      	bnew ac0e <_printf_i+0x350>
    aa86:	0c02 006f      	cmpib #111,%d2
    aa8a:	6700 01bc      	beqw ac48 <_printf_i+0x38a>
    aa8e:	4bf9 0000 ba06 	lea ba06 <_ctype_+0x11c>,%a5
    aa94:	720a           	moveq #10,%d1
    aa96:	2d41 fff8      	movel %d1,%fp@(-8)
    aa9a:	422a 0043      	clrb %a2@(67)
    aa9e:	202a 0004      	movel %a2@(4),%d0
    aaa2:	2540 0008      	movel %d0,%a2@(8)
    aaa6:	6a9c           	bpls aa44 <_printf_i+0x186>
    aaa8:	242e fff8      	movel %fp@(-8),%d2
    aaac:	266e fff4      	moveal %fp@(-12),%a3
    aab0:	2a3c 0000 b860 	movel #47200,%d5
    aab6:	2f02           	movel %d2,%sp@-
    aab8:	2f07           	movel %d7,%sp@-
    aaba:	2045           	moveal %d5,%a0
    aabc:	4e90           	jsr %a0@
    aabe:	508f           	addql #8,%sp
    aac0:	1735 0800      	moveb %a5@(0000000000000000,%d0:l),%a3@-
    aac4:	2c07           	movel %d7,%d6
    aac6:	2f02           	movel %d2,%sp@-
    aac8:	2f07           	movel %d7,%sp@-
    aaca:	4eb9 0000 b7d4 	jsr b7d4 <__udivsi3>
    aad0:	508f           	addql #8,%sp
    aad2:	2e00           	movel %d0,%d7
    aad4:	b486           	cmpl %d6,%d2
    aad6:	6200 ff7e      	bhiw aa56 <_printf_i+0x198>
    aada:	2f02           	movel %d2,%sp@-
    aadc:	2f07           	movel %d7,%sp@-
    aade:	2045           	moveal %d5,%a0
    aae0:	4e90           	jsr %a0@
    aae2:	508f           	addql #8,%sp
    aae4:	1735 0800      	moveb %a5@(0000000000000000,%d0:l),%a3@-
    aae8:	2c07           	movel %d7,%d6
    aaea:	2f02           	movel %d2,%sp@-
    aaec:	2f07           	movel %d7,%sp@-
    aaee:	4eb9 0000 b7d4 	jsr b7d4 <__udivsi3>
    aaf4:	508f           	addql #8,%sp
    aaf6:	2e00           	movel %d0,%d7
    aaf8:	b486           	cmpl %d6,%d2
    aafa:	63ba           	blss aab6 <_printf_i+0x1f8>
    aafc:	6000 ff58      	braw aa56 <_printf_i+0x198>
    ab00:	2010           	movel %a0@,%d0
    ab02:	2200           	movel %d0,%d1
    ab04:	5881           	addql #4,%d1
    ab06:	2081           	movel %d1,%a0@
    ab08:	47ea 0042      	lea %a2@(66),%a3
    ab0c:	2040           	moveal %d0,%a0
    ab0e:	1568 0003 0042 	moveb %a0@(3),%a2@(66)
    ab14:	7001           	moveq #1,%d0
    ab16:	2540 0010      	movel %d0,%a2@(16)
    ab1a:	422a 0043      	clrb %a2@(67)
    ab1e:	6000 fe4e      	braw a96e <_printf_i+0xb0>
    ab22:	2010           	movel %a0@,%d0
    ab24:	2200           	movel %d0,%d1
    ab26:	5881           	addql #4,%d1
    ab28:	2081           	movel %d1,%a0@
    ab2a:	2040           	moveal %d0,%a0
    ab2c:	2650           	moveal %a0@,%a3
    ab2e:	2f2a 0004      	movel %a2@(4),%sp@-
    ab32:	42a7           	clrl %sp@-
    ab34:	2f0b           	movel %a3,%sp@-
    ab36:	4eb9 0000 a42c 	jsr a42c <memchr>
    ab3c:	4fef 000c      	lea %sp@(12),%sp
    ab40:	4a80           	tstl %d0
    ab42:	6700 0130      	beqw ac74 <_printf_i+0x3b6>
    ab46:	908b           	subl %a3,%d0
    ab48:	2540 0004      	movel %d0,%a2@(4)
    ab4c:	2540 0010      	movel %d0,%a2@(16)
    ab50:	422a 0043      	clrb %a2@(67)
    ab54:	6000 fe18      	braw a96e <_printf_i+0xb0>
    ab58:	7020           	moveq #32,%d0
    ab5a:	8092           	orl %a2@,%d0
    ab5c:	2480           	movel %d0,%a2@
    ab5e:	157c 0078 0045 	moveb #120,%a2@(69)
    ab64:	4bf9 0000 ba17 	lea ba17 <_ctype_+0x12d>,%a5
    ab6a:	2250           	moveal %a0@,%a1
    ab6c:	2209           	movel %a1,%d1
    ab6e:	5881           	addql #4,%d1
    ab70:	2081           	movel %d1,%a0@
    ab72:	2e11           	movel %a1@,%d7
    ab74:	4a00           	tstb %d0
    ab76:	6b0c           	bmis ab84 <_printf_i+0x2c6>
    ab78:	0800 0006      	btst #6,%d0
    ab7c:	6706           	beqs ab84 <_printf_i+0x2c6>
    ab7e:	0287 0000 ffff 	andil #65535,%d7
    ab84:	0800 0000      	btst #0,%d0
    ab88:	6706           	beqs ab90 <_printf_i+0x2d2>
    ab8a:	7220           	moveq #32,%d1
    ab8c:	8280           	orl %d0,%d1
    ab8e:	2481           	movel %d1,%a2@
    ab90:	4a87           	tstl %d7
    ab92:	6604           	bnes ab98 <_printf_i+0x2da>
    ab94:	70df           	moveq #-33,%d0
    ab96:	c192           	andl %d0,%a2@
    ab98:	7210           	moveq #16,%d1
    ab9a:	2d41 fff8      	movel %d1,%fp@(-8)
    ab9e:	422a 0043      	clrb %a2@(67)
    aba2:	202a 0004      	movel %a2@(4),%d0
    aba6:	6000 fefa      	braw aaa2 <_printf_i+0x1e4>
    abaa:	082a 0000 0003 	btst #0,%a2@(3)
    abb0:	6700 feae      	beqw aa60 <_printf_i+0x1a2>
    abb4:	222a 0004      	movel %a2@(4),%d1
    abb8:	b2aa 0010      	cmpl %a2@(16),%d1
    abbc:	6e00 fea2      	bgtw aa60 <_printf_i+0x1a2>
    abc0:	177c 0030 ffff 	moveb #48,%a3@(-1)
    abc6:	538b           	subql #1,%a3
    abc8:	206e fff4      	moveal %fp@(-12),%a0
    abcc:	91cb           	subal %a3,%a0
    abce:	2548 0010      	movel %a0,%a2@(16)
    abd2:	6000 fd9a      	braw a96e <_printf_i+0xb0>
    abd6:	157c 0058 0045 	moveb #88,%a2@(69)
    abdc:	2012           	movel %a2@,%d0
    abde:	4bf9 0000 ba06 	lea ba06 <_ctype_+0x11c>,%a5
    abe4:	6084           	bras ab6a <_printf_i+0x2ac>
    abe6:	2012           	movel %a2@,%d0
    abe8:	157c 0078 0045 	moveb #120,%a2@(69)
    abee:	4bf9 0000 ba17 	lea ba17 <_ctype_+0x12d>,%a5
    abf4:	6000 ff74      	braw ab6a <_printf_i+0x2ac>
    abf8:	2051           	moveal %a1@,%a0
    abfa:	2e08           	movel %a0,%d7
    abfc:	6000 fe28      	braw aa26 <_printf_i+0x168>
    ac00:	3081           	movew %d1,%a0@
    ac02:	42aa 0010      	clrl %a2@(16)
    ac06:	266e fff4      	moveal %fp@(-12),%a3
    ac0a:	6000 fd62      	braw a96e <_printf_i+0xb0>
    ac0e:	0287 0000 ffff 	andil #65535,%d7
    ac14:	6000 fe70      	braw aa86 <_printf_i+0x1c8>
    ac18:	157c 002d 0043 	moveb #45,%a2@(67)
    ac1e:	2540 0008      	movel %d0,%a2@(8)
    ac22:	6b06           	bmis ac2a <_printf_i+0x36c>
    ac24:	70fb           	moveq #-5,%d0
    ac26:	c082           	andl %d2,%d0
    ac28:	2480           	movel %d0,%a2@
    ac2a:	4487           	negl %d7
    ac2c:	740a           	moveq #10,%d2
    ac2e:	4bf9 0000 ba06 	lea ba06 <_ctype_+0x11c>,%a5
    ac34:	720a           	moveq #10,%d1
    ac36:	2d41 fff8      	movel %d1,%fp@(-8)
    ac3a:	266e fff4      	moveal %fp@(-12),%a3
    ac3e:	2a3c 0000 b860 	movel #47200,%d5
    ac44:	6000 fe70      	braw aab6 <_printf_i+0x1f8>
    ac48:	4bf9 0000 ba06 	lea ba06 <_ctype_+0x11c>,%a5
    ac4e:	7208           	moveq #8,%d1
    ac50:	2d41 fff8      	movel %d1,%fp@(-8)
    ac54:	422a 0043      	clrb %a2@(67)
    ac58:	202a 0004      	movel %a2@(4),%d0
    ac5c:	6000 fe44      	braw aaa2 <_printf_i+0x1e4>
    ac60:	47ea 0042      	lea %a2@(66),%a3
    ac64:	1695           	moveb %a5@,%a3@
    ac66:	7008           	moveq #8,%d0
    ac68:	b0ae fff8      	cmpl %fp@(-8),%d0
    ac6c:	6600 fdf2      	bnew aa60 <_printf_i+0x1a2>
    ac70:	6000 ff38      	braw abaa <_printf_i+0x2ec>
    ac74:	202a 0004      	movel %a2@(4),%d0
    ac78:	2540 0010      	movel %d0,%a2@(16)
    ac7c:	422a 0043      	clrb %a2@(67)
    ac80:	6000 fcec      	braw a96e <_printf_i+0xb0>

0000ac84 <_realloc_r>:
    ac84:	598f           	subql #4,%sp
    ac86:	48e7 383e      	moveml %d2-%d4/%a2-%fp,%sp@-
    ac8a:	286f 0028      	moveal %sp@(40),%a4
    ac8e:	246f 002c      	moveal %sp@(44),%a2
    ac92:	2a6f 0030      	moveal %sp@(48),%a5
    ac96:	b4fc 0000      	cmpaw #0,%a2
    ac9a:	6700 0190      	beqw ae2c <_realloc_r+0x1a8>
    ac9e:	2f0c           	movel %a4,%sp@-
    aca0:	4eb9 0000 a778 	jsr a778 <__malloc_lock>
    aca6:	47ea fff8      	lea %a2@(-8),%a3
    acaa:	282a fffc      	movel %a2@(-4),%d4
    acae:	74fc           	moveq #-4,%d2
    acb0:	c484           	andl %d4,%d2
    acb2:	41ed 000b      	lea %a5@(11),%a0
    acb6:	588f           	addql #4,%sp
    acb8:	7016           	moveq #22,%d0
    acba:	b088           	cmpl %a0,%d0
    acbc:	6400 00ee      	bccw adac <_realloc_r+0x128>
    acc0:	2608           	movel %a0,%d3
    acc2:	72f8           	moveq #-8,%d1
    acc4:	c681           	andl %d1,%d3
    acc6:	b0fc 0000      	cmpaw #0,%a0
    acca:	6d00 00e8      	bltw adb4 <_realloc_r+0x130>
    acce:	b68d           	cmpl %a5,%d3
    acd0:	6500 00e2      	bcsw adb4 <_realloc_r+0x130>
    acd4:	b682           	cmpl %d2,%d3
    acd6:	6f00 00fe      	blew add6 <_realloc_r+0x152>
    acda:	41f3 2800      	lea %a3@(0000000000000000,%d2:l),%a0
    acde:	2028 0004      	movel %a0@(4),%d0
    ace2:	b1f9 0000 bfc8 	cmpal bfc8 <__malloc_av_+0x8>,%a0
    ace8:	6700 0182      	beqw ae6c <_realloc_r+0x1e8>
    acec:	72fe           	moveq #-2,%d1
    acee:	c280           	andl %d0,%d1
    acf0:	0830 0000 1807 	btst #0,%a0@(0000000000000007,%d1:l)
    acf6:	6600 0114      	bnew ae0c <_realloc_r+0x188>
    acfa:	72fc           	moveq #-4,%d1
    acfc:	c081           	andl %d1,%d0
    acfe:	2202           	movel %d2,%d1
    ad00:	d280           	addl %d0,%d1
    ad02:	b283           	cmpl %d3,%d1
    ad04:	6c00 00be      	bgew adc4 <_realloc_r+0x140>
    ad08:	0804 0000      	btst #0,%d4
    ad0c:	6620           	bnes ad2e <_realloc_r+0xaa>
    ad0e:	2c4b           	moveal %a3,%fp
    ad10:	9dea fff8      	subal %a2@(-8),%fp
    ad14:	72fc           	moveq #-4,%d1
    ad16:	c2ae 0004      	andl %fp@(4),%d1
    ad1a:	d081           	addl %d1,%d0
    ad1c:	2800           	movel %d0,%d4
    ad1e:	d882           	addl %d2,%d4
    ad20:	b883           	cmpl %d3,%d4
    ad22:	6c00 0268      	bgew af8c <_realloc_r+0x308>
    ad26:	d282           	addl %d2,%d1
    ad28:	b283           	cmpl %d3,%d1
    ad2a:	6c00 01f4      	bgew af20 <_realloc_r+0x29c>
    ad2e:	2f0d           	movel %a5,%sp@-
    ad30:	2f0c           	movel %a4,%sp@-
    ad32:	4eb9 0000 9ba4 	jsr 9ba4 <_malloc_r>
    ad38:	2a40           	moveal %d0,%a5
    ad3a:	508f           	addql #8,%sp
    ad3c:	4a80           	tstl %d0
    ad3e:	6700 03dc      	beqw b11c <_realloc_r+0x498>
    ad42:	70fe           	moveq #-2,%d0
    ad44:	c0aa fffc      	andl %a2@(-4),%d0
    ad48:	d08b           	addl %a3,%d0
    ad4a:	220d           	movel %a5,%d1
    ad4c:	5181           	subql #8,%d1
    ad4e:	b280           	cmpl %d0,%d1
    ad50:	6700 02a0      	beqw aff2 <_realloc_r+0x36e>
    ad54:	5982           	subql #4,%d2
    ad56:	7224           	moveq #36,%d1
    ad58:	b282           	cmpl %d2,%d1
    ad5a:	6500 02a2      	bcsw affe <_realloc_r+0x37a>
    ad5e:	7813           	moveq #19,%d4
    ad60:	b882           	cmpl %d2,%d4
    ad62:	6400 0212      	bccw af76 <_realloc_r+0x2f2>
    ad66:	2a92           	movel %a2@,%a5@
    ad68:	2b6a 0004 0004 	movel %a2@(4),%a5@(4)
    ad6e:	701b           	moveq #27,%d0
    ad70:	b082           	cmpl %d2,%d0
    ad72:	6500 02b4      	bcsw b028 <_realloc_r+0x3a4>
    ad76:	43ea 0008      	lea %a2@(8),%a1
    ad7a:	41ed 0008      	lea %a5@(8),%a0
    ad7e:	2091           	movel %a1@,%a0@
    ad80:	2169 0004 0004 	movel %a1@(4),%a0@(4)
    ad86:	2169 0008 0008 	movel %a1@(8),%a0@(8)
    ad8c:	2f0a           	movel %a2,%sp@-
    ad8e:	2f0c           	movel %a4,%sp@-
    ad90:	4eb9 0000 9162 	jsr 9162 <_free_r>
    ad96:	2f0c           	movel %a4,%sp@-
    ad98:	4eb9 0000 a77a 	jsr a77a <__malloc_unlock>
    ad9e:	4fef 000c      	lea %sp@(12),%sp
    ada2:	200d           	movel %a5,%d0
    ada4:	4cdf 7c1c      	moveml %sp@+,%d2-%d4/%a2-%fp
    ada8:	588f           	addql #4,%sp
    adaa:	4e75           	rts
    adac:	7610           	moveq #16,%d3
    adae:	b68d           	cmpl %a5,%d3
    adb0:	6400 ff22      	bccw acd4 <_realloc_r+0x50>
    adb4:	780c           	moveq #12,%d4
    adb6:	2884           	movel %d4,%a4@
    adb8:	9bcd           	subal %a5,%a5
    adba:	200d           	movel %a5,%d0
    adbc:	4cdf 7c1c      	moveml %sp@+,%d2-%d4/%a2-%fp
    adc0:	588f           	addql #4,%sp
    adc2:	4e75           	rts
    adc4:	2268 000c      	moveal %a0@(12),%a1
    adc8:	2068 0008      	moveal %a0@(8),%a0
    adcc:	2149 000c      	movel %a1,%a0@(12)
    add0:	2348 0008      	movel %a0,%a1@(8)
    add4:	2401           	movel %d1,%d2
    add6:	2002           	movel %d2,%d0
    add8:	9083           	subl %d3,%d0
    adda:	7201           	moveq #1,%d1
    addc:	c2ab 0004      	andl %a3@(4),%d1
    ade0:	41f3 2800      	lea %a3@(0000000000000000,%d2:l),%a0
    ade4:	780f           	moveq #15,%d4
    ade6:	b880           	cmpl %d0,%d4
    ade8:	6552           	bcss ae3c <_realloc_r+0x1b8>
    adea:	8481           	orl %d1,%d2
    adec:	2742 0004      	movel %d2,%a3@(4)
    adf0:	7001           	moveq #1,%d0
    adf2:	81a8 0004      	orl %d0,%a0@(4)
    adf6:	2f0c           	movel %a4,%sp@-
    adf8:	4eb9 0000 a77a 	jsr a77a <__malloc_unlock>
    adfe:	588f           	addql #4,%sp
    ae00:	2a4a           	moveal %a2,%a5
    ae02:	200d           	movel %a5,%d0
    ae04:	4cdf 7c1c      	moveml %sp@+,%d2-%d4/%a2-%fp
    ae08:	588f           	addql #4,%sp
    ae0a:	4e75           	rts
    ae0c:	0804 0000      	btst #0,%d4
    ae10:	6600 ff1c      	bnew ad2e <_realloc_r+0xaa>
    ae14:	2c4b           	moveal %a3,%fp
    ae16:	9dea fff8      	subal %a2@(-8),%fp
    ae1a:	72fc           	moveq #-4,%d1
    ae1c:	c2ae 0004      	andl %fp@(4),%d1
    ae20:	d282           	addl %d2,%d1
    ae22:	b283           	cmpl %d3,%d1
    ae24:	6d00 ff08      	bltw ad2e <_realloc_r+0xaa>
    ae28:	6000 00f6      	braw af20 <_realloc_r+0x29c>
    ae2c:	2f4d 002c      	movel %a5,%sp@(44)
    ae30:	4cdf 7c1c      	moveml %sp@+,%d2-%d4/%a2-%fp
    ae34:	588f           	addql #4,%sp
    ae36:	4ef9 0000 9ba4 	jmp 9ba4 <_malloc_r>
    ae3c:	8283           	orl %d3,%d1
    ae3e:	2741 0004      	movel %d1,%a3@(4)
    ae42:	7201           	moveq #1,%d1
    ae44:	8280           	orl %d0,%d1
    ae46:	2781 3804      	movel %d1,%a3@(0000000000000004,%d3:l)
    ae4a:	7801           	moveq #1,%d4
    ae4c:	89a8 0004      	orl %d4,%a0@(4)
    ae50:	4873 3808      	pea %a3@(0000000000000008,%d3:l)
    ae54:	2f0c           	movel %a4,%sp@-
    ae56:	4eb9 0000 9162 	jsr 9162 <_free_r>
    ae5c:	508f           	addql #8,%sp
    ae5e:	2f0c           	movel %a4,%sp@-
    ae60:	4eb9 0000 a77a 	jsr a77a <__malloc_unlock>
    ae66:	588f           	addql #4,%sp
    ae68:	2a4a           	moveal %a2,%a5
    ae6a:	6096           	bras ae02 <_realloc_r+0x17e>
    ae6c:	72fc           	moveq #-4,%d1
    ae6e:	c081           	andl %d1,%d0
    ae70:	2200           	movel %d0,%d1
    ae72:	d282           	addl %d2,%d1
    ae74:	307c 0010      	moveaw #16,%a0
    ae78:	d1c3           	addal %d3,%a0
    ae7a:	b1c1           	cmpal %d1,%a0
    ae7c:	6f00 020e      	blew b08c <_realloc_r+0x408>
    ae80:	0804 0000      	btst #0,%d4
    ae84:	6600 fea8      	bnew ad2e <_realloc_r+0xaa>
    ae88:	2c4b           	moveal %a3,%fp
    ae8a:	9dea fff8      	subal %a2@(-8),%fp
    ae8e:	72fc           	moveq #-4,%d1
    ae90:	c2ae 0004      	andl %fp@(4),%d1
    ae94:	d081           	addl %d1,%d0
    ae96:	2800           	movel %d0,%d4
    ae98:	d882           	addl %d2,%d4
    ae9a:	b888           	cmpl %a0,%d4
    ae9c:	6d00 fe88      	bltw ad26 <_realloc_r+0xa2>
    aea0:	206e 000c      	moveal %fp@(12),%a0
    aea4:	226e 0008      	moveal %fp@(8),%a1
    aea8:	2348 000c      	movel %a0,%a1@(12)
    aeac:	2149 0008      	movel %a1,%a0@(8)
    aeb0:	4bee 0008      	lea %fp@(8),%a5
    aeb4:	5982           	subql #4,%d2
    aeb6:	7024           	moveq #36,%d0
    aeb8:	b082           	cmpl %d2,%d0
    aeba:	6500 02d8      	bcsw b194 <_realloc_r+0x510>
    aebe:	7213           	moveq #19,%d1
    aec0:	b282           	cmpl %d2,%d1
    aec2:	6400 02bc      	bccw b180 <_realloc_r+0x4fc>
    aec6:	2d52 0008      	movel %a2@,%fp@(8)
    aeca:	2d6a 0004 000c 	movel %a2@(4),%fp@(12)
    aed0:	701b           	moveq #27,%d0
    aed2:	b082           	cmpl %d2,%d0
    aed4:	6500 0322      	bcsw b1f8 <_realloc_r+0x574>
    aed8:	508a           	addql #8,%a2
    aeda:	41ee 0010      	lea %fp@(16),%a0
    aede:	2092           	movel %a2@,%a0@
    aee0:	216a 0004 0004 	movel %a2@(4),%a0@(4)
    aee6:	216a 0008 0008 	movel %a2@(8),%a0@(8)
    aeec:	41f6 3800      	lea %fp@(0000000000000000,%d3:l),%a0
    aef0:	23c8 0000 bfc8 	movel %a0,bfc8 <__malloc_av_+0x8>
    aef6:	9883           	subl %d3,%d4
    aef8:	7001           	moveq #1,%d0
    aefa:	8084           	orl %d4,%d0
    aefc:	2140 0004      	movel %d0,%a0@(4)
    af00:	7001           	moveq #1,%d0
    af02:	c0ae 0004      	andl %fp@(4),%d0
    af06:	8083           	orl %d3,%d0
    af08:	2d40 0004      	movel %d0,%fp@(4)
    af0c:	2f0c           	movel %a4,%sp@-
    af0e:	4eb9 0000 a77a 	jsr a77a <__malloc_unlock>
    af14:	588f           	addql #4,%sp
    af16:	200d           	movel %a5,%d0
    af18:	4cdf 7c1c      	moveml %sp@+,%d2-%d4/%a2-%fp
    af1c:	588f           	addql #4,%sp
    af1e:	4e75           	rts
    af20:	206e 000c      	moveal %fp@(12),%a0
    af24:	226e 0008      	moveal %fp@(8),%a1
    af28:	2348 000c      	movel %a0,%a1@(12)
    af2c:	2149 0008      	movel %a1,%a0@(8)
    af30:	280e           	movel %fp,%d4
    af32:	5084           	addql #8,%d4
    af34:	5982           	subql #4,%d2
    af36:	7024           	moveq #36,%d0
    af38:	b082           	cmpl %d2,%d0
    af3a:	6500 012e      	bcsw b06a <_realloc_r+0x3e6>
    af3e:	7013           	moveq #19,%d0
    af40:	b082           	cmpl %d2,%d0
    af42:	6400 0112      	bccw b056 <_realloc_r+0x3d2>
    af46:	2d52 0008      	movel %a2@,%fp@(8)
    af4a:	2d6a 0004 000c 	movel %a2@(4),%fp@(12)
    af50:	701b           	moveq #27,%d0
    af52:	b082           	cmpl %d2,%d0
    af54:	6500 0198      	bcsw b0ee <_realloc_r+0x46a>
    af58:	508a           	addql #8,%a2
    af5a:	41ee 0010      	lea %fp@(16),%a0
    af5e:	2092           	movel %a2@,%a0@
    af60:	216a 0004 0004 	movel %a2@(4),%a0@(4)
    af66:	216a 0008 0008 	movel %a2@(8),%a0@(8)
    af6c:	2444           	moveal %d4,%a2
    af6e:	2401           	movel %d1,%d2
    af70:	264e           	moveal %fp,%a3
    af72:	6000 fe62      	braw add6 <_realloc_r+0x152>
    af76:	204d           	moveal %a5,%a0
    af78:	224a           	moveal %a2,%a1
    af7a:	2091           	movel %a1@,%a0@
    af7c:	2169 0004 0004 	movel %a1@(4),%a0@(4)
    af82:	2169 0008 0008 	movel %a1@(8),%a0@(8)
    af88:	6000 fe02      	braw ad8c <_realloc_r+0x108>
    af8c:	2268 000c      	moveal %a0@(12),%a1
    af90:	2068 0008      	moveal %a0@(8),%a0
    af94:	2149 000c      	movel %a1,%a0@(12)
    af98:	2348 0008      	movel %a0,%a1@(8)
    af9c:	206e 000c      	moveal %fp@(12),%a0
    afa0:	226e 0008      	moveal %fp@(8),%a1
    afa4:	2348 000c      	movel %a0,%a1@(12)
    afa8:	2149 0008      	movel %a1,%a0@(8)
    afac:	47ee 0008      	lea %fp@(8),%a3
    afb0:	5982           	subql #4,%d2
    afb2:	7224           	moveq #36,%d1
    afb4:	b282           	cmpl %d2,%d1
    afb6:	6500 011c      	bcsw b0d4 <_realloc_r+0x450>
    afba:	7013           	moveq #19,%d0
    afbc:	b082           	cmpl %d2,%d0
    afbe:	6400 0100      	bccw b0c0 <_realloc_r+0x43c>
    afc2:	2d52 0008      	movel %a2@,%fp@(8)
    afc6:	2d6a 0004 000c 	movel %a2@(4),%fp@(12)
    afcc:	721b           	moveq #27,%d1
    afce:	b282           	cmpl %d2,%d1
    afd0:	6500 0180      	bcsw b152 <_realloc_r+0x4ce>
    afd4:	508a           	addql #8,%a2
    afd6:	41ee 0010      	lea %fp@(16),%a0
    afda:	2092           	movel %a2@,%a0@
    afdc:	216a 0004 0004 	movel %a2@(4),%a0@(4)
    afe2:	216a 0008 0008 	movel %a2@(8),%a0@(8)
    afe8:	244b           	moveal %a3,%a2
    afea:	2404           	movel %d4,%d2
    afec:	264e           	moveal %fp,%a3
    afee:	6000 fde6      	braw add6 <_realloc_r+0x152>
    aff2:	70fc           	moveq #-4,%d0
    aff4:	c0ad fffc      	andl %a5@(-4),%d0
    aff8:	d480           	addl %d0,%d2
    affa:	6000 fdda      	braw add6 <_realloc_r+0x152>
    affe:	2f02           	movel %d2,%sp@-
    b000:	2f0a           	movel %a2,%sp@-
    b002:	2f0d           	movel %a5,%sp@-
    b004:	4eb9 0000 a59c 	jsr a59c <memmove>
    b00a:	4fef 000c      	lea %sp@(12),%sp
    b00e:	2f0a           	movel %a2,%sp@-
    b010:	2f0c           	movel %a4,%sp@-
    b012:	4eb9 0000 9162 	jsr 9162 <_free_r>
    b018:	2f0c           	movel %a4,%sp@-
    b01a:	4eb9 0000 a77a 	jsr a77a <__malloc_unlock>
    b020:	4fef 000c      	lea %sp@(12),%sp
    b024:	6000 fd7c      	braw ada2 <_realloc_r+0x11e>
    b028:	2b6a 0008 0008 	movel %a2@(8),%a5@(8)
    b02e:	2b6a 000c 000c 	movel %a2@(12),%a5@(12)
    b034:	7224           	moveq #36,%d1
    b036:	b282           	cmpl %d2,%d1
    b038:	6700 00f2      	beqw b12c <_realloc_r+0x4a8>
    b03c:	43ea 0010      	lea %a2@(16),%a1
    b040:	41ed 0010      	lea %a5@(16),%a0
    b044:	2091           	movel %a1@,%a0@
    b046:	2169 0004 0004 	movel %a1@(4),%a0@(4)
    b04c:	2169 0008 0008 	movel %a1@(8),%a0@(8)
    b052:	6000 fd38      	braw ad8c <_realloc_r+0x108>
    b056:	2044           	moveal %d4,%a0
    b058:	2092           	movel %a2@,%a0@
    b05a:	216a 0004 0004 	movel %a2@(4),%a0@(4)
    b060:	216a 0008 0008 	movel %a2@(8),%a0@(8)
    b066:	6000 ff04      	braw af6c <_realloc_r+0x2e8>
    b06a:	2f02           	movel %d2,%sp@-
    b06c:	2f0a           	movel %a2,%sp@-
    b06e:	2f04           	movel %d4,%sp@-
    b070:	2f41 002c      	movel %d1,%sp@(44)
    b074:	4eb9 0000 a59c 	jsr a59c <memmove>
    b07a:	4fef 000c      	lea %sp@(12),%sp
    b07e:	222f 0020      	movel %sp@(32),%d1
    b082:	2444           	moveal %d4,%a2
    b084:	2401           	movel %d1,%d2
    b086:	264e           	moveal %fp,%a3
    b088:	6000 fd4c      	braw add6 <_realloc_r+0x152>
    b08c:	d7c3           	addal %d3,%a3
    b08e:	23cb 0000 bfc8 	movel %a3,bfc8 <__malloc_av_+0x8>
    b094:	9283           	subl %d3,%d1
    b096:	7801           	moveq #1,%d4
    b098:	8881           	orl %d1,%d4
    b09a:	2744 0004      	movel %d4,%a3@(4)
    b09e:	7001           	moveq #1,%d0
    b0a0:	c0aa fffc      	andl %a2@(-4),%d0
    b0a4:	8083           	orl %d3,%d0
    b0a6:	2540 fffc      	movel %d0,%a2@(-4)
    b0aa:	2f0c           	movel %a4,%sp@-
    b0ac:	4eb9 0000 a77a 	jsr a77a <__malloc_unlock>
    b0b2:	588f           	addql #4,%sp
    b0b4:	2a4a           	moveal %a2,%a5
    b0b6:	200d           	movel %a5,%d0
    b0b8:	4cdf 7c1c      	moveml %sp@+,%d2-%d4/%a2-%fp
    b0bc:	588f           	addql #4,%sp
    b0be:	4e75           	rts
    b0c0:	204b           	moveal %a3,%a0
    b0c2:	2092           	movel %a2@,%a0@
    b0c4:	216a 0004 0004 	movel %a2@(4),%a0@(4)
    b0ca:	216a 0008 0008 	movel %a2@(8),%a0@(8)
    b0d0:	6000 ff16      	braw afe8 <_realloc_r+0x364>
    b0d4:	2f02           	movel %d2,%sp@-
    b0d6:	2f0a           	movel %a2,%sp@-
    b0d8:	2f0b           	movel %a3,%sp@-
    b0da:	4eb9 0000 a59c 	jsr a59c <memmove>
    b0e0:	4fef 000c      	lea %sp@(12),%sp
    b0e4:	244b           	moveal %a3,%a2
    b0e6:	2404           	movel %d4,%d2
    b0e8:	264e           	moveal %fp,%a3
    b0ea:	6000 fcea      	braw add6 <_realloc_r+0x152>
    b0ee:	2d6a 0008 0010 	movel %a2@(8),%fp@(16)
    b0f4:	2d6a 000c 0014 	movel %a2@(12),%fp@(20)
    b0fa:	7024           	moveq #36,%d0
    b0fc:	b082           	cmpl %d2,%d0
    b0fe:	6700 00d2      	beqw b1d2 <_realloc_r+0x54e>
    b102:	45ea 0010      	lea %a2@(16),%a2
    b106:	41ee 0018      	lea %fp@(24),%a0
    b10a:	2092           	movel %a2@,%a0@
    b10c:	216a 0004 0004 	movel %a2@(4),%a0@(4)
    b112:	216a 0008 0008 	movel %a2@(8),%a0@(8)
    b118:	6000 fe52      	braw af6c <_realloc_r+0x2e8>
    b11c:	2f0c           	movel %a4,%sp@-
    b11e:	4eb9 0000 a77a 	jsr a77a <__malloc_unlock>
    b124:	588f           	addql #4,%sp
    b126:	9bcd           	subal %a5,%a5
    b128:	6000 fc90      	braw adba <_realloc_r+0x136>
    b12c:	2b6a 0010 0010 	movel %a2@(16),%a5@(16)
    b132:	43ea 0018      	lea %a2@(24),%a1
    b136:	41ed 0018      	lea %a5@(24),%a0
    b13a:	2b6a 0014 0014 	movel %a2@(20),%a5@(20)
    b140:	2091           	movel %a1@,%a0@
    b142:	2169 0004 0004 	movel %a1@(4),%a0@(4)
    b148:	2169 0008 0008 	movel %a1@(8),%a0@(8)
    b14e:	6000 fc3c      	braw ad8c <_realloc_r+0x108>
    b152:	2d6a 0008 0010 	movel %a2@(8),%fp@(16)
    b158:	2d6a 000c 0014 	movel %a2@(12),%fp@(20)
    b15e:	7024           	moveq #36,%d0
    b160:	b082           	cmpl %d2,%d0
    b162:	6700 00c0      	beqw b224 <_realloc_r+0x5a0>
    b166:	45ea 0010      	lea %a2@(16),%a2
    b16a:	41ee 0018      	lea %fp@(24),%a0
    b16e:	2092           	movel %a2@,%a0@
    b170:	216a 0004 0004 	movel %a2@(4),%a0@(4)
    b176:	216a 0008 0008 	movel %a2@(8),%a0@(8)
    b17c:	6000 fe6a      	braw afe8 <_realloc_r+0x364>
    b180:	204d           	moveal %a5,%a0
    b182:	2092           	movel %a2@,%a0@
    b184:	216a 0004 0004 	movel %a2@(4),%a0@(4)
    b18a:	216a 0008 0008 	movel %a2@(8),%a0@(8)
    b190:	6000 fd5a      	braw aeec <_realloc_r+0x268>
    b194:	2f02           	movel %d2,%sp@-
    b196:	2f0a           	movel %a2,%sp@-
    b198:	2f0d           	movel %a5,%sp@-
    b19a:	4eb9 0000 a59c 	jsr a59c <memmove>
    b1a0:	4fef 000c      	lea %sp@(12),%sp
    b1a4:	41f6 3800      	lea %fp@(0000000000000000,%d3:l),%a0
    b1a8:	23c8 0000 bfc8 	movel %a0,bfc8 <__malloc_av_+0x8>
    b1ae:	9883           	subl %d3,%d4
    b1b0:	7001           	moveq #1,%d0
    b1b2:	8084           	orl %d4,%d0
    b1b4:	2140 0004      	movel %d0,%a0@(4)
    b1b8:	7001           	moveq #1,%d0
    b1ba:	c0ae 0004      	andl %fp@(4),%d0
    b1be:	8083           	orl %d3,%d0
    b1c0:	2d40 0004      	movel %d0,%fp@(4)
    b1c4:	2f0c           	movel %a4,%sp@-
    b1c6:	4eb9 0000 a77a 	jsr a77a <__malloc_unlock>
    b1cc:	588f           	addql #4,%sp
    b1ce:	6000 fd46      	braw af16 <_realloc_r+0x292>
    b1d2:	2d6a 0010 0018 	movel %a2@(16),%fp@(24)
    b1d8:	41ee 0020      	lea %fp@(32),%a0
    b1dc:	2d6a 0014 001c 	movel %a2@(20),%fp@(28)
    b1e2:	45ea 0018      	lea %a2@(24),%a2
    b1e6:	2092           	movel %a2@,%a0@
    b1e8:	216a 0004 0004 	movel %a2@(4),%a0@(4)
    b1ee:	216a 0008 0008 	movel %a2@(8),%a0@(8)
    b1f4:	6000 fd76      	braw af6c <_realloc_r+0x2e8>
    b1f8:	2d6a 0008 0010 	movel %a2@(8),%fp@(16)
    b1fe:	2d6a 000c 0014 	movel %a2@(12),%fp@(20)
    b204:	7224           	moveq #36,%d1
    b206:	b282           	cmpl %d2,%d1
    b208:	6740           	beqs b24a <_realloc_r+0x5c6>
    b20a:	45ea 0010      	lea %a2@(16),%a2
    b20e:	41ee 0018      	lea %fp@(24),%a0
    b212:	2092           	movel %a2@,%a0@
    b214:	216a 0004 0004 	movel %a2@(4),%a0@(4)
    b21a:	216a 0008 0008 	movel %a2@(8),%a0@(8)
    b220:	6000 fcca      	braw aeec <_realloc_r+0x268>
    b224:	2d6a 0010 0018 	movel %a2@(16),%fp@(24)
    b22a:	41ee 0020      	lea %fp@(32),%a0
    b22e:	2d6a 0014 001c 	movel %a2@(20),%fp@(28)
    b234:	45ea 0018      	lea %a2@(24),%a2
    b238:	2092           	movel %a2@,%a0@
    b23a:	216a 0004 0004 	movel %a2@(4),%a0@(4)
    b240:	216a 0008 0008 	movel %a2@(8),%a0@(8)
    b246:	6000 fda0      	braw afe8 <_realloc_r+0x364>
    b24a:	2d6a 0010 0018 	movel %a2@(16),%fp@(24)
    b250:	41ee 0020      	lea %fp@(32),%a0
    b254:	2d6a 0014 001c 	movel %a2@(20),%fp@(28)
    b25a:	45ea 0018      	lea %a2@(24),%a2
    b25e:	2092           	movel %a2@,%a0@
    b260:	216a 0004 0004 	movel %a2@(4),%a0@(4)
    b266:	216a 0008 0008 	movel %a2@(8),%a0@(8)
    b26c:	6000 fc7e      	braw aeec <_realloc_r+0x268>

0000b270 <_sbrk_r>:
    b270:	42b9 0000 c400 	clrl c400 <errno>
    b276:	2f2f 0008      	movel %sp@(8),%sp@-
    b27a:	4eb9 0000 804a 	jsr 804a <sbrk>
    b280:	588f           	addql #4,%sp
    b282:	72ff           	moveq #-1,%d1
    b284:	b280           	cmpl %d0,%d1
    b286:	6702           	beqs b28a <_sbrk_r+0x1a>
    b288:	4e75           	rts
    b28a:	2239 0000 c400 	movel c400 <errno>,%d1
    b290:	67f6           	beqs b288 <_sbrk_r+0x18>
    b292:	206f 0004      	moveal %sp@(4),%a0
    b296:	2081           	movel %d1,%a0@
    b298:	4e75           	rts
	...

0000b29c <__sread>:
    b29c:	2f0a           	movel %a2,%sp@-
    b29e:	246f 000c      	moveal %sp@(12),%a2
    b2a2:	2f2f 0014      	movel %sp@(20),%sp@-
    b2a6:	2f2f 0014      	movel %sp@(20),%sp@-
    b2aa:	306a 000e      	moveaw %a2@(14),%a0
    b2ae:	2f08           	movel %a0,%sp@-
    b2b0:	2f2f 0014      	movel %sp@(20),%sp@-
    b2b4:	4eb9 0000 b618 	jsr b618 <_read_r>
    b2ba:	4fef 0010      	lea %sp@(16),%sp
    b2be:	4a80           	tstl %d0
    b2c0:	6d08           	blts b2ca <__sread+0x2e>
    b2c2:	d1aa 0050      	addl %d0,%a2@(80)
    b2c6:	245f           	moveal %sp@+,%a2
    b2c8:	4e75           	rts
    b2ca:	026a efff 000c 	andiw #-4097,%a2@(12)
    b2d0:	245f           	moveal %sp@+,%a2
    b2d2:	4e75           	rts

0000b2d4 <__seofread>:
    b2d4:	7000           	moveq #0,%d0
    b2d6:	4e75           	rts

0000b2d8 <__swrite>:
    b2d8:	48e7 3820      	moveml %d2-%d4/%a2,%sp@-
    b2dc:	242f 0014      	movel %sp@(20),%d2
    b2e0:	246f 0018      	moveal %sp@(24),%a2
    b2e4:	262f 001c      	movel %sp@(28),%d3
    b2e8:	282f 0020      	movel %sp@(32),%d4
    b2ec:	302a 000c      	movew %a2@(12),%d0
    b2f0:	0800 0008      	btst #8,%d0
    b2f4:	6626           	bnes b31c <__swrite+0x44>
    b2f6:	0240 efff      	andiw #-4097,%d0
    b2fa:	3540 000c      	movew %d0,%a2@(12)
    b2fe:	2f44 0020      	movel %d4,%sp@(32)
    b302:	2f43 001c      	movel %d3,%sp@(28)
    b306:	346a 000e      	moveaw %a2@(14),%a2
    b30a:	2f4a 0018      	movel %a2,%sp@(24)
    b30e:	2f42 0014      	movel %d2,%sp@(20)
    b312:	4cdf 041c      	moveml %sp@+,%d2-%d4/%a2
    b316:	4ef9 0000 b528 	jmp b528 <_write_r>
    b31c:	4878 0002      	pea 2 <_start-0x7ffe>
    b320:	42a7           	clrl %sp@-
    b322:	306a 000e      	moveaw %a2@(14),%a0
    b326:	2f08           	movel %a0,%sp@-
    b328:	2f02           	movel %d2,%sp@-
    b32a:	4eb9 0000 b5e4 	jsr b5e4 <_lseek_r>
    b330:	302a 000c      	movew %a2@(12),%d0
    b334:	4fef 0010      	lea %sp@(16),%sp
    b338:	0240 efff      	andiw #-4097,%d0
    b33c:	3540 000c      	movew %d0,%a2@(12)
    b340:	2f44 0020      	movel %d4,%sp@(32)
    b344:	2f43 001c      	movel %d3,%sp@(28)
    b348:	346a 000e      	moveaw %a2@(14),%a2
    b34c:	2f4a 0018      	movel %a2,%sp@(24)
    b350:	2f42 0014      	movel %d2,%sp@(20)
    b354:	4cdf 041c      	moveml %sp@+,%d2-%d4/%a2
    b358:	4ef9 0000 b528 	jmp b528 <_write_r>

0000b35e <__sseek>:
    b35e:	2f0a           	movel %a2,%sp@-
    b360:	246f 000c      	moveal %sp@(12),%a2
    b364:	2f2f 0014      	movel %sp@(20),%sp@-
    b368:	2f2f 0014      	movel %sp@(20),%sp@-
    b36c:	306a 000e      	moveaw %a2@(14),%a0
    b370:	2f08           	movel %a0,%sp@-
    b372:	2f2f 0014      	movel %sp@(20),%sp@-
    b376:	4eb9 0000 b5e4 	jsr b5e4 <_lseek_r>
    b37c:	4fef 0010      	lea %sp@(16),%sp
    b380:	72ff           	moveq #-1,%d1
    b382:	b280           	cmpl %d0,%d1
    b384:	670e           	beqs b394 <__sseek+0x36>
    b386:	006a 1000 000c 	oriw #4096,%a2@(12)
    b38c:	2540 0050      	movel %d0,%a2@(80)
    b390:	245f           	moveal %sp@+,%a2
    b392:	4e75           	rts
    b394:	026a efff 000c 	andiw #-4097,%a2@(12)
    b39a:	245f           	moveal %sp@+,%a2
    b39c:	4e75           	rts

0000b39e <__sclose>:
    b39e:	206f 0008      	moveal %sp@(8),%a0
    b3a2:	3068 000e      	moveaw %a0@(14),%a0
    b3a6:	2f48 0008      	movel %a0,%sp@(8)
    b3aa:	4ef9 0000 b55c 	jmp b55c <_close_r>

0000b3b0 <strcmp>:
    b3b0:	2f0a           	movel %a2,%sp@-
    b3b2:	206f 0008      	moveal %sp@(8),%a0
    b3b6:	226f 000c      	moveal %sp@(12),%a1
    b3ba:	2008           	movel %a0,%d0
    b3bc:	2209           	movel %a1,%d1
    b3be:	8081           	orl %d1,%d0
    b3c0:	7203           	moveq #3,%d1
    b3c2:	c081           	andl %d1,%d0
    b3c4:	6624           	bnes b3ea <strcmp+0x3a>
    b3c6:	2010           	movel %a0@,%d0
    b3c8:	b091           	cmpl %a1@,%d0
    b3ca:	661e           	bnes b3ea <strcmp+0x3a>
    b3cc:	2200           	movel %d0,%d1
    b3ce:	0681 fefe feff 	addil #-16843009,%d1
    b3d4:	4680           	notl %d0
    b3d6:	c081           	andl %d1,%d0
    b3d8:	0280 8080 8080 	andil #-2139062144,%d0
    b3de:	6638           	bnes b418 <strcmp+0x68>
    b3e0:	5888           	addql #4,%a0
    b3e2:	5889           	addql #4,%a1
    b3e4:	2010           	movel %a0@,%d0
    b3e6:	b091           	cmpl %a1@,%d0
    b3e8:	67e2           	beqs b3cc <strcmp+0x1c>
    b3ea:	1010           	moveb %a0@,%d0
    b3ec:	6730           	beqs b41e <strcmp+0x6e>
    b3ee:	2449           	moveal %a1,%a2
    b3f0:	224a           	moveal %a2,%a1
    b3f2:	b01a           	cmpb %a2@+,%d0
    b3f4:	6614           	bnes b40a <strcmp+0x5a>
    b3f6:	5288           	addql #1,%a0
    b3f8:	1010           	moveb %a0@,%d0
    b3fa:	66f4           	bnes b3f0 <strcmp+0x40>
    b3fc:	224a           	moveal %a2,%a1
    b3fe:	7000           	moveq #0,%d0
    b400:	7200           	moveq #0,%d1
    b402:	1211           	moveb %a1@,%d1
    b404:	9081           	subl %d1,%d0
    b406:	245f           	moveal %sp@+,%a2
    b408:	4e75           	rts
    b40a:	0280 0000 00ff 	andil #255,%d0
    b410:	7200           	moveq #0,%d1
    b412:	1211           	moveb %a1@,%d1
    b414:	9081           	subl %d1,%d0
    b416:	60ee           	bras b406 <strcmp+0x56>
    b418:	7000           	moveq #0,%d0
    b41a:	245f           	moveal %sp@+,%a2
    b41c:	4e75           	rts
    b41e:	7000           	moveq #0,%d0
    b420:	7200           	moveq #0,%d1
    b422:	1211           	moveb %a1@,%d1
    b424:	9081           	subl %d1,%d0
    b426:	60de           	bras b406 <strcmp+0x56>

0000b428 <_wcrtomb_r>:
    b428:	4e56 fff4      	linkw %fp,#-12
    b42c:	222e 000c      	movel %fp@(12),%d1
    b430:	2079 0000 bf30 	moveal bf30 <__global_locale+0xe0>,%a0
    b436:	6734           	beqs b46c <_wcrtomb_r+0x44>
    b438:	2f2e 0014      	movel %fp@(20),%sp@-
    b43c:	2f2e 0010      	movel %fp@(16),%sp@-
    b440:	2f01           	movel %d1,%sp@-
    b442:	2f2e 0008      	movel %fp@(8),%sp@-
    b446:	4e90           	jsr %a0@
    b448:	4fef 0010      	lea %sp@(16),%sp
    b44c:	72ff           	moveq #-1,%d1
    b44e:	b280           	cmpl %d0,%d1
    b450:	6704           	beqs b456 <_wcrtomb_r+0x2e>
    b452:	4e5e           	unlk %fp
    b454:	4e75           	rts
    b456:	206e 0014      	moveal %fp@(20),%a0
    b45a:	4290           	clrl %a0@
    b45c:	206e 0008      	moveal %fp@(8),%a0
    b460:	20bc 0000 008a 	movel #138,%a0@
    b466:	70ff           	moveq #-1,%d0
    b468:	4e5e           	unlk %fp
    b46a:	4e75           	rts
    b46c:	2f2e 0014      	movel %fp@(20),%sp@-
    b470:	42a7           	clrl %sp@-
    b472:	486e fff6      	pea %fp@(-10)
    b476:	2f2e 0008      	movel %fp@(8),%sp@-
    b47a:	4e90           	jsr %a0@
    b47c:	4fef 0010      	lea %sp@(16),%sp
    b480:	72ff           	moveq #-1,%d1
    b482:	b280           	cmpl %d0,%d1
    b484:	66cc           	bnes b452 <_wcrtomb_r+0x2a>
    b486:	60ce           	bras b456 <_wcrtomb_r+0x2e>

0000b488 <wcrtomb>:
    b488:	4e56 fff4      	linkw %fp,#-12
    b48c:	2f0a           	movel %a2,%sp@-
    b48e:	222e 0008      	movel %fp@(8),%d1
    b492:	2479 0000 ba28 	moveal ba28 <_impure_ptr>,%a2
    b498:	2079 0000 bf30 	moveal bf30 <__global_locale+0xe0>,%a0
    b49e:	6736           	beqs b4d6 <wcrtomb+0x4e>
    b4a0:	2f2e 0010      	movel %fp@(16),%sp@-
    b4a4:	2f2e 000c      	movel %fp@(12),%sp@-
    b4a8:	2f01           	movel %d1,%sp@-
    b4aa:	2f0a           	movel %a2,%sp@-
    b4ac:	4e90           	jsr %a0@
    b4ae:	4fef 0010      	lea %sp@(16),%sp
    b4b2:	72ff           	moveq #-1,%d1
    b4b4:	b280           	cmpl %d0,%d1
    b4b6:	6708           	beqs b4c0 <wcrtomb+0x38>
    b4b8:	246e fff0      	moveal %fp@(-16),%a2
    b4bc:	4e5e           	unlk %fp
    b4be:	4e75           	rts
    b4c0:	206e 0010      	moveal %fp@(16),%a0
    b4c4:	4290           	clrl %a0@
    b4c6:	24bc 0000 008a 	movel #138,%a2@
    b4cc:	70ff           	moveq #-1,%d0
    b4ce:	246e fff0      	moveal %fp@(-16),%a2
    b4d2:	4e5e           	unlk %fp
    b4d4:	4e75           	rts
    b4d6:	2f2e 0010      	movel %fp@(16),%sp@-
    b4da:	42a7           	clrl %sp@-
    b4dc:	486e fff6      	pea %fp@(-10)
    b4e0:	2f0a           	movel %a2,%sp@-
    b4e2:	4e90           	jsr %a0@
    b4e4:	4fef 0010      	lea %sp@(16),%sp
    b4e8:	72ff           	moveq #-1,%d1
    b4ea:	b280           	cmpl %d0,%d1
    b4ec:	66ca           	bnes b4b8 <wcrtomb+0x30>
    b4ee:	60d0           	bras b4c0 <wcrtomb+0x38>

0000b4f0 <_wctomb_r>:
    b4f0:	2279 0000 bf30 	moveal bf30 <__global_locale+0xe0>,%a1
    b4f6:	4ed1           	jmp %a1@

0000b4f8 <__ascii_wctomb>:
    b4f8:	206f 0008      	moveal %sp@(8),%a0
    b4fc:	202f 000c      	movel %sp@(12),%d0
    b500:	b0fc 0000      	cmpaw #0,%a0
    b504:	671c           	beqs b522 <__ascii_wctomb+0x2a>
    b506:	0c80 0000 00ff 	cmpil #255,%d0
    b50c:	6206           	bhis b514 <__ascii_wctomb+0x1c>
    b50e:	1080           	moveb %d0,%a0@
    b510:	7001           	moveq #1,%d0
    b512:	4e75           	rts
    b514:	206f 0004      	moveal %sp@(4),%a0
    b518:	20bc 0000 008a 	movel #138,%a0@
    b51e:	70ff           	moveq #-1,%d0
    b520:	4e75           	rts
    b522:	7000           	moveq #0,%d0
    b524:	4e75           	rts
	...

0000b528 <_write_r>:
    b528:	42b9 0000 c400 	clrl c400 <errno>
    b52e:	2f2f 0010      	movel %sp@(16),%sp@-
    b532:	2f2f 0010      	movel %sp@(16),%sp@-
    b536:	2f2f 0010      	movel %sp@(16),%sp@-
    b53a:	4eb9 0000 8010 	jsr 8010 <write>
    b540:	4fef 000c      	lea %sp@(12),%sp
    b544:	72ff           	moveq #-1,%d1
    b546:	b280           	cmpl %d0,%d1
    b548:	6702           	beqs b54c <_write_r+0x24>
    b54a:	4e75           	rts
    b54c:	2239 0000 c400 	movel c400 <errno>,%d1
    b552:	67f6           	beqs b54a <_write_r+0x22>
    b554:	206f 0004      	moveal %sp@(4),%a0
    b558:	2081           	movel %d1,%a0@
    b55a:	4e75           	rts

0000b55c <_close_r>:
    b55c:	42b9 0000 c400 	clrl c400 <errno>
    b562:	2f2f 0008      	movel %sp@(8),%sp@-
    b566:	4eb9 0000 8054 	jsr 8054 <close>
    b56c:	588f           	addql #4,%sp
    b56e:	72ff           	moveq #-1,%d1
    b570:	b280           	cmpl %d0,%d1
    b572:	6702           	beqs b576 <_close_r+0x1a>
    b574:	4e75           	rts
    b576:	2239 0000 c400 	movel c400 <errno>,%d1
    b57c:	67f6           	beqs b574 <_close_r+0x18>
    b57e:	206f 0004      	moveal %sp@(4),%a0
    b582:	2081           	movel %d1,%a0@
    b584:	4e75           	rts
	...

0000b588 <_fstat_r>:
    b588:	42b9 0000 c400 	clrl c400 <errno>
    b58e:	2f2f 000c      	movel %sp@(12),%sp@-
    b592:	2f2f 000c      	movel %sp@(12),%sp@-
    b596:	4eb9 0000 805e 	jsr 805e <fstat>
    b59c:	508f           	addql #8,%sp
    b59e:	72ff           	moveq #-1,%d1
    b5a0:	b280           	cmpl %d0,%d1
    b5a2:	6702           	beqs b5a6 <_fstat_r+0x1e>
    b5a4:	4e75           	rts
    b5a6:	2239 0000 c400 	movel c400 <errno>,%d1
    b5ac:	67f6           	beqs b5a4 <_fstat_r+0x1c>
    b5ae:	206f 0004      	moveal %sp@(4),%a0
    b5b2:	2081           	movel %d1,%a0@
    b5b4:	4e75           	rts
	...

0000b5b8 <_isatty_r>:
    b5b8:	42b9 0000 c400 	clrl c400 <errno>
    b5be:	2f2f 0008      	movel %sp@(8),%sp@-
    b5c2:	4eb9 0000 8068 	jsr 8068 <isatty>
    b5c8:	588f           	addql #4,%sp
    b5ca:	72ff           	moveq #-1,%d1
    b5cc:	b280           	cmpl %d0,%d1
    b5ce:	6702           	beqs b5d2 <_isatty_r+0x1a>
    b5d0:	4e75           	rts
    b5d2:	2239 0000 c400 	movel c400 <errno>,%d1
    b5d8:	67f6           	beqs b5d0 <_isatty_r+0x18>
    b5da:	206f 0004      	moveal %sp@(4),%a0
    b5de:	2081           	movel %d1,%a0@
    b5e0:	4e75           	rts
	...

0000b5e4 <_lseek_r>:
    b5e4:	42b9 0000 c400 	clrl c400 <errno>
    b5ea:	2f2f 0010      	movel %sp@(16),%sp@-
    b5ee:	2f2f 0010      	movel %sp@(16),%sp@-
    b5f2:	2f2f 0010      	movel %sp@(16),%sp@-
    b5f6:	4eb9 0000 8072 	jsr 8072 <lseek>
    b5fc:	4fef 000c      	lea %sp@(12),%sp
    b600:	72ff           	moveq #-1,%d1
    b602:	b280           	cmpl %d0,%d1
    b604:	6702           	beqs b608 <_lseek_r+0x24>
    b606:	4e75           	rts
    b608:	2239 0000 c400 	movel c400 <errno>,%d1
    b60e:	67f6           	beqs b606 <_lseek_r+0x22>
    b610:	206f 0004      	moveal %sp@(4),%a0
    b614:	2081           	movel %d1,%a0@
    b616:	4e75           	rts

0000b618 <_read_r>:
    b618:	42b9 0000 c400 	clrl c400 <errno>
    b61e:	2f2f 0010      	movel %sp@(16),%sp@-
    b622:	2f2f 0010      	movel %sp@(16),%sp@-
    b626:	2f2f 0010      	movel %sp@(16),%sp@-
    b62a:	4eb9 0000 807c 	jsr 807c <read>
    b630:	4fef 000c      	lea %sp@(12),%sp
    b634:	72ff           	moveq #-1,%d1
    b636:	b280           	cmpl %d0,%d1
    b638:	6702           	beqs b63c <_read_r+0x24>
    b63a:	4e75           	rts
    b63c:	2239 0000 c400 	movel c400 <errno>,%d1
    b642:	67f6           	beqs b63a <_read_r+0x22>
    b644:	206f 0004      	moveal %sp@(4),%a0
    b648:	2081           	movel %d1,%a0@
    b64a:	4e75           	rts

0000b64c <cleanup_glue>:
    b64c:	48e7 203c      	moveml %d2/%a2-%a5,%sp@-
    b650:	242f 0018      	movel %sp@(24),%d2
    b654:	266f 001c      	moveal %sp@(28),%a3
    b658:	2453           	moveal %a3@,%a2
    b65a:	b4fc 0000      	cmpaw #0,%a2
    b65e:	673c           	beqs b69c <cleanup_glue+0x50>
    b660:	2852           	moveal %a2@,%a4
    b662:	b8fc 0000      	cmpaw #0,%a4
    b666:	6746           	beqs b6ae <cleanup_glue+0x62>
    b668:	2a54           	moveal %a4@,%a5
    b66a:	bafc 0000      	cmpaw #0,%a5
    b66e:	674e           	beqs b6be <cleanup_glue+0x72>
    b670:	2015           	movel %a5@,%d0
    b672:	670a           	beqs b67e <cleanup_glue+0x32>
    b674:	2f00           	movel %d0,%sp@-
    b676:	2f02           	movel %d2,%sp@-
    b678:	4eba ffd2      	jsr %pc@(b64c <cleanup_glue>)
    b67c:	508f           	addql #8,%sp
    b67e:	2f0d           	movel %a5,%sp@-
    b680:	2f02           	movel %d2,%sp@-
    b682:	4bf9 0000 9162 	lea 9162 <_free_r>,%a5
    b688:	4e95           	jsr %a5@
    b68a:	508f           	addql #8,%sp
    b68c:	2f0c           	movel %a4,%sp@-
    b68e:	2f02           	movel %d2,%sp@-
    b690:	4e95           	jsr %a5@
    b692:	508f           	addql #8,%sp
    b694:	2f0a           	movel %a2,%sp@-
    b696:	2f02           	movel %d2,%sp@-
    b698:	4e95           	jsr %a5@
    b69a:	508f           	addql #8,%sp
    b69c:	2f4b 001c      	movel %a3,%sp@(28)
    b6a0:	2f42 0018      	movel %d2,%sp@(24)
    b6a4:	4cdf 3c04      	moveml %sp@+,%d2/%a2-%a5
    b6a8:	4ef9 0000 9162 	jmp 9162 <_free_r>
    b6ae:	4bf9 0000 9162 	lea 9162 <_free_r>,%a5
    b6b4:	2f0a           	movel %a2,%sp@-
    b6b6:	2f02           	movel %d2,%sp@-
    b6b8:	4e95           	jsr %a5@
    b6ba:	508f           	addql #8,%sp
    b6bc:	60de           	bras b69c <cleanup_glue+0x50>
    b6be:	4bf9 0000 9162 	lea 9162 <_free_r>,%a5
    b6c4:	2f0c           	movel %a4,%sp@-
    b6c6:	2f02           	movel %d2,%sp@-
    b6c8:	4e95           	jsr %a5@
    b6ca:	508f           	addql #8,%sp
    b6cc:	60c6           	bras b694 <cleanup_glue+0x48>

0000b6ce <_reclaim_reent>:
    b6ce:	48e7 2038      	moveml %d2/%a2-%a4,%sp@-
    b6d2:	266f 0014      	moveal %sp@(20),%a3
    b6d6:	b7f9 0000 ba28 	cmpal ba28 <_impure_ptr>,%a3
    b6dc:	6700 00ca      	beqw b7a8 <_reclaim_reent+0xda>
    b6e0:	206b 004a      	moveal %a3@(74),%a0
    b6e4:	b0fc 0000      	cmpaw #0,%a0
    b6e8:	673a           	beqs b724 <_reclaim_reent+0x56>
    b6ea:	7400           	moveq #0,%d2
    b6ec:	49f9 0000 9162 	lea 9162 <_free_r>,%a4
    b6f2:	2470 2800      	moveal %a0@(0000000000000000,%d2:l),%a2
    b6f6:	b4fc 0000      	cmpaw #0,%a2
    b6fa:	6716           	beqs b712 <_reclaim_reent+0x44>
    b6fc:	200a           	movel %a2,%d0
    b6fe:	2452           	moveal %a2@,%a2
    b700:	2f00           	movel %d0,%sp@-
    b702:	2f0b           	movel %a3,%sp@-
    b704:	4e94           	jsr %a4@
    b706:	508f           	addql #8,%sp
    b708:	b4fc 0000      	cmpaw #0,%a2
    b70c:	66ee           	bnes b6fc <_reclaim_reent+0x2e>
    b70e:	206b 004a      	moveal %a3@(74),%a0
    b712:	5882           	addql #4,%d2
    b714:	0c82 0000 0080 	cmpil #128,%d2
    b71a:	66d6           	bnes b6f2 <_reclaim_reent+0x24>
    b71c:	2f08           	movel %a0,%sp@-
    b71e:	2f0b           	movel %a3,%sp@-
    b720:	4e94           	jsr %a4@
    b722:	508f           	addql #8,%sp
    b724:	202b 003e      	movel %a3@(62),%d0
    b728:	670c           	beqs b736 <_reclaim_reent+0x68>
    b72a:	2f00           	movel %d0,%sp@-
    b72c:	2f0b           	movel %a3,%sp@-
    b72e:	4eb9 0000 9162 	jsr 9162 <_free_r>
    b734:	508f           	addql #8,%sp
    b736:	246b 0146      	moveal %a3@(326),%a2
    b73a:	b4fc 0000      	cmpaw #0,%a2
    b73e:	6722           	beqs b762 <_reclaim_reent+0x94>
    b740:	240b           	movel %a3,%d2
    b742:	0682 0000 014a 	addil #330,%d2
    b748:	b48a           	cmpl %a2,%d2
    b74a:	6716           	beqs b762 <_reclaim_reent+0x94>
    b74c:	49f9 0000 9162 	lea 9162 <_free_r>,%a4
    b752:	200a           	movel %a2,%d0
    b754:	2452           	moveal %a2@,%a2
    b756:	2f00           	movel %d0,%sp@-
    b758:	2f0b           	movel %a3,%sp@-
    b75a:	4e94           	jsr %a4@
    b75c:	508f           	addql #8,%sp
    b75e:	b5c2           	cmpal %d2,%a2
    b760:	66f0           	bnes b752 <_reclaim_reent+0x84>
    b762:	202b 0052      	movel %a3@(82),%d0
    b766:	670c           	beqs b774 <_reclaim_reent+0xa6>
    b768:	2f00           	movel %d0,%sp@-
    b76a:	2f0b           	movel %a3,%sp@-
    b76c:	4eb9 0000 9162 	jsr 9162 <_free_r>
    b772:	508f           	addql #8,%sp
    b774:	4aab 0036      	tstl %a3@(54)
    b778:	672e           	beqs b7a8 <_reclaim_reent+0xda>
    b77a:	2f0b           	movel %a3,%sp@-
    b77c:	206b 003a      	moveal %a3@(58),%a0
    b780:	4e90           	jsr %a0@
    b782:	246b 02de      	moveal %a3@(734),%a2
    b786:	588f           	addql #4,%sp
    b788:	b4fc 0000      	cmpaw #0,%a2
    b78c:	671a           	beqs b7a8 <_reclaim_reent+0xda>
    b78e:	2012           	movel %a2@,%d0
    b790:	670a           	beqs b79c <_reclaim_reent+0xce>
    b792:	2f00           	movel %d0,%sp@-
    b794:	2f0b           	movel %a3,%sp@-
    b796:	4eba feb4      	jsr %pc@(b64c <cleanup_glue>)
    b79a:	508f           	addql #8,%sp
    b79c:	2f0a           	movel %a2,%sp@-
    b79e:	2f0b           	movel %a3,%sp@-
    b7a0:	4eb9 0000 9162 	jsr 9162 <_free_r>
    b7a6:	508f           	addql #8,%sp
    b7a8:	4cdf 1c04      	moveml %sp@+,%d2/%a2-%a4
    b7ac:	4e75           	rts
	...

0000b7b0 <__mulsi3>:
    b7b0:	302f 0004      	movew %sp@(4),%d0
    b7b4:	c0ef 000a      	muluw %sp@(10),%d0
    b7b8:	322f 0006      	movew %sp@(6),%d1
    b7bc:	c2ef 0008      	muluw %sp@(8),%d1
    b7c0:	d041           	addw %d1,%d0
    b7c2:	4840           	swap %d0
    b7c4:	4240           	clrw %d0
    b7c6:	322f 0006      	movew %sp@(6),%d1
    b7ca:	c2ef 000a      	muluw %sp@(10),%d1
    b7ce:	d081           	addl %d1,%d0
    b7d0:	4e75           	rts
	...

0000b7d4 <__udivsi3>:
    b7d4:	2f02           	movel %d2,%sp@-
    b7d6:	222f 000c      	movel %sp@(12),%d1
    b7da:	202f 0008      	movel %sp@(8),%d0
    b7de:	0c81 0001 0000 	cmpil #65536,%d1
    b7e4:	6416           	bccs b7fc <L3>
    b7e6:	2400           	movel %d0,%d2
    b7e8:	4242           	clrw %d2
    b7ea:	4842           	swap %d2
    b7ec:	84c1           	divuw %d1,%d2
    b7ee:	3002           	movew %d2,%d0
    b7f0:	4840           	swap %d0
    b7f2:	342f 000a      	movew %sp@(10),%d2
    b7f6:	84c1           	divuw %d1,%d2
    b7f8:	3002           	movew %d2,%d0
    b7fa:	6030           	bras b82c <L6>

0000b7fc <L3>:
    b7fc:	2401           	movel %d1,%d2

0000b7fe <L4>:
    b7fe:	e289           	lsrl #1,%d1
    b800:	e288           	lsrl #1,%d0
    b802:	0c81 0001 0000 	cmpil #65536,%d1
    b808:	64f4           	bccs b7fe <L4>
    b80a:	80c1           	divuw %d1,%d0
    b80c:	0280 0000 ffff 	andil #65535,%d0
    b812:	2202           	movel %d2,%d1
    b814:	c2c0           	muluw %d0,%d1
    b816:	4842           	swap %d2
    b818:	c4c0           	muluw %d0,%d2
    b81a:	4842           	swap %d2
    b81c:	4a42           	tstw %d2
    b81e:	660a           	bnes b82a <L5>
    b820:	d282           	addl %d2,%d1
    b822:	6506           	bcss b82a <L5>
    b824:	b2af 0008      	cmpl %sp@(8),%d1
    b828:	6302           	blss b82c <L6>

0000b82a <L5>:
    b82a:	5380           	subql #1,%d0

0000b82c <L6>:
    b82c:	241f           	movel %sp@+,%d2
    b82e:	4e75           	rts

0000b830 <__divsi3>:
    b830:	2f02           	movel %d2,%sp@-
    b832:	7401           	moveq #1,%d2
    b834:	222f 000c      	movel %sp@(12),%d1
    b838:	6a04           	bpls b83e <L1>
    b83a:	4481           	negl %d1
    b83c:	4402           	negb %d2

0000b83e <L1>:
    b83e:	202f 0008      	movel %sp@(8),%d0
    b842:	6a04           	bpls b848 <L2>
    b844:	4480           	negl %d0
    b846:	4402           	negb %d2

0000b848 <L2>:
    b848:	2f01           	movel %d1,%sp@-
    b84a:	2f00           	movel %d0,%sp@-
    b84c:	4eb9 0000 b7d4 	jsr b7d4 <__udivsi3>
    b852:	508f           	addql #8,%sp
    b854:	4a02           	tstb %d2
    b856:	6a02           	bpls b85a <L3>
    b858:	4480           	negl %d0

0000b85a <L3>:
    b85a:	241f           	movel %sp@+,%d2
    b85c:	4e75           	rts
	...

0000b860 <__umodsi3>:
    b860:	222f 0008      	movel %sp@(8),%d1
    b864:	202f 0004      	movel %sp@(4),%d0
    b868:	2f01           	movel %d1,%sp@-
    b86a:	2f00           	movel %d0,%sp@-
    b86c:	4eb9 0000 b7d4 	jsr b7d4 <__udivsi3>
    b872:	508f           	addql #8,%sp
    b874:	222f 0008      	movel %sp@(8),%d1
    b878:	2f01           	movel %d1,%sp@-
    b87a:	2f00           	movel %d0,%sp@-
    b87c:	4eb9 0000 b7b0 	jsr b7b0 <__mulsi3>
    b882:	508f           	addql #8,%sp
    b884:	222f 0004      	movel %sp@(4),%d1
    b888:	9280           	subl %d0,%d1
    b88a:	2001           	movel %d1,%d0
    b88c:	4e75           	rts
	...

0000b890 <__modsi3>:
    b890:	222f 0008      	movel %sp@(8),%d1
    b894:	202f 0004      	movel %sp@(4),%d0
    b898:	2f01           	movel %d1,%sp@-
    b89a:	2f00           	movel %d0,%sp@-
    b89c:	4eb9 0000 b830 	jsr b830 <__divsi3>
    b8a2:	508f           	addql #8,%sp
    b8a4:	222f 0008      	movel %sp@(8),%d1
    b8a8:	2f01           	movel %d1,%sp@-
    b8aa:	2f00           	movel %d0,%sp@-
    b8ac:	4eb9 0000 b7b0 	jsr b7b0 <__mulsi3>
    b8b2:	508f           	addql #8,%sp
    b8b4:	222f 0004      	movel %sp@(4),%d1
    b8b8:	9280           	subl %d0,%d1
    b8ba:	2001           	movel %d1,%d0
    b8bc:	4e75           	rts
